ARM GAS  C:\Users\johnn\AppData\Local\Temp\ccAJfIRe.s 			page 1


   1              		.syntax unified
   2              		.cpu cortex-m0
   3              		.fpu softvfp
   4              		.eabi_attribute 20, 1
   5              		.eabi_attribute 21, 1
   6              		.eabi_attribute 23, 3
   7              		.eabi_attribute 24, 1
   8              		.eabi_attribute 25, 1
   9              		.eabi_attribute 26, 1
  10              		.eabi_attribute 30, 1
  11              		.eabi_attribute 34, 0
  12              		.eabi_attribute 18, 4
  13              		.thumb
  14              		.syntax unified
  15              		.file	"main.c"
  16              		.text
  17              	.Ltext0:
  18              		.cfi_sections	.debug_frame
  19              		.section	.text.Stack_Handler,"ax",%progbits
  20              		.align	2
  21              		.global	Stack_Handler
  22              		.code	16
  23              		.thumb_func
  24              		.type	Stack_Handler, %function
  25              	Stack_Handler:
  26              	.LFB35:
  27              		.file 1 "main.c"
   1:main.c        **** /* ========================================
   2:main.c        ****  *
   3:main.c        ****  * Copyright Johnny Chiahao Li, Columbia University, 2019
   4:main.c        ****  * Version 3.5
   5:main.c        ****  *
   6:main.c        ****  * All Rights Reserved
   7:main.c        ****  * UNPUBLISHED, LICENSED SOFTWARE.
   8:main.c        ****  *
   9:main.c        ****  * CONFIDENTIAL AND PROPRIETARY INFORMATION
  10:main.c        ****  * WHICH IS THE PROPERTY OF your company.
  11:main.c        ****  *
  12:main.c        ****  * ========================================
  13:main.c        **** */
  14:main.c        **** #include "project.h"
  15:main.c        **** #include <JI2C.h>
  16:main.c        **** 
  17:main.c        **** void Stack_Handler(uint32 eventCode, void *eventParam)
  18:main.c        **** {
  28              		.loc 1 18 0
  29              		.cfi_startproc
  30              		@ args = 0, pretend = 0, frame = 0
  31              		@ frame_needed = 0, uses_anonymous_args = 0
  32              	.LVL0:
  33 0000 10B5     		push	{r4, lr}
  34              		.cfi_def_cfa_offset 8
  35              		.cfi_offset 4, -8
  36              		.cfi_offset 14, -4
  19:main.c        ****     switch(eventCode)
  37              		.loc 1 19 0
  38 0002 0128     		cmp	r0, #1
ARM GAS  C:\Users\johnn\AppData\Local\Temp\ccAJfIRe.s 			page 2


  39 0004 01D0     		beq	.L3
  40 0006 2828     		cmp	r0, #40
  41 0008 02D1     		bne	.L1
  42              	.L3:
  20:main.c        ****     {
  21:main.c        ****         case CYBLE_EVT_STACK_ON:
  22:main.c        ****         case CYBLE_EVT_GAP_DEVICE_DISCONNECTED:
  23:main.c        ****             CyBle_GappStartAdvertisement(CYBLE_ADVERTISING_FAST);
  43              		.loc 1 23 0
  44 000a 0020     		movs	r0, #0
  45              	.LVL1:
  46 000c FFF7FEFF 		bl	CyBle_GappStartAdvertisement
  47              	.LVL2:
  48              	.L1:
  24:main.c        ****             break;
  25:main.c        ****     }
  26:main.c        **** }
  49              		.loc 1 26 0
  50              		@ sp needed
  51 0010 10BD     		pop	{r4, pc}
  52              		.cfi_endproc
  53              	.LFE35:
  54              		.size	Stack_Handler, .-Stack_Handler
  55              		.global	__aeabi_i2d
  56              		.global	__aeabi_dmul
  57              		.global	__aeabi_ddiv
  58 0012 C046     		.section	.text.main,"ax",%progbits
  59              		.align	2
  60              		.global	main
  61              		.code	16
  62              		.thumb_func
  63              		.type	main, %function
  64              	main:
  65              	.LFB36:
  27:main.c        **** int main(void)
  28:main.c        **** {   
  66              		.loc 1 28 0
  67              		.cfi_startproc
  68              		@ args = 0, pretend = 0, frame = 80
  69              		@ frame_needed = 0, uses_anonymous_args = 0
  70 0000 F0B5     		push	{r4, r5, r6, r7, lr}
  71              		.cfi_def_cfa_offset 20
  72              		.cfi_offset 4, -20
  73              		.cfi_offset 5, -16
  74              		.cfi_offset 6, -12
  75              		.cfi_offset 7, -8
  76              		.cfi_offset 14, -4
  77 0002 95B0     		sub	sp, sp, #84
  78              		.cfi_def_cfa_offset 104
  29:main.c        ****     //Starts BLE Handeling
  30:main.c        ****     CyBle_Start(Stack_Handler);
  79              		.loc 1 30 0
  80 0004 8848     		ldr	r0, .L6
  81 0006 FFF7FEFF 		bl	CyBle_Start
  82              	.LVL3:
  31:main.c        ****     CyGlobalIntEnable; 
  83              		.loc 1 31 0
ARM GAS  C:\Users\johnn\AppData\Local\Temp\ccAJfIRe.s 			page 3


  84              		.syntax divided
  85              	@ 31 "main.c" 1
  86 000a 62B6     		CPSIE   i
  87              	@ 0 "" 2
  32:main.c        ****     
  33:main.c        ****     /*
  34:main.c        ****     //Starts UART
  35:main.c        ****     UART_OUT_Start();
  36:main.c        ****     UART_OUT_Init();
  37:main.c        ****     */
  38:main.c        ****     
  39:main.c        ****     //Enabling I2C and the interrupts
  40:main.c        ****     I2C_Start();    
  88              		.loc 1 40 0
  89              		.thumb
  90              		.syntax unified
  91 000c FFF7FEFF 		bl	I2C_Start
  92              	.LVL4:
  41:main.c        ****       
  42:main.c        ****     //Debugging variables
  43:main.c        ****     volatile uint16 MasterStatus;
  44:main.c        ****     volatile uint8 checkWrite;
  45:main.c        ****     
  46:main.c        ****     //Define variables to hold data. Volatile so it does not get eliminated by the optimizer from t
  47:main.c        ****     volatile uint8 deviceID;
  48:main.c        ****     volatile uint8 XoutH;
  49:main.c        ****     volatile uint8 XoutL;
  50:main.c        ****     
  51:main.c        ****     volatile uint8 ACCEL_X_L;
  52:main.c        ****     volatile uint8 ACCEL_X_H;
  53:main.c        ****     volatile uint8 ACCEL_Y_L;
  54:main.c        ****     volatile uint8 ACCEL_Y_H;
  55:main.c        ****     volatile uint8 ACCEL_Z_L;
  56:main.c        ****     volatile uint8 ACCEL_Z_H;
  57:main.c        ****     
  58:main.c        ****     volatile double ACCEL_X;
  59:main.c        ****     volatile double ACCEL_Y;
  60:main.c        ****     volatile double ACCEL_Z;
  61:main.c        ****     
  62:main.c        ****     volatile uint8 GYRO_X_L;
  63:main.c        ****     volatile uint8 GYRO_X_H;
  64:main.c        ****     volatile uint8 GYRO_Y_L;
  65:main.c        ****     volatile uint8 GYRO_Y_H;
  66:main.c        ****     volatile uint8 GYRO_Z_L;
  67:main.c        ****     volatile uint8 GYRO_Z_H;
  68:main.c        ****     
  69:main.c        ****     volatile double GYRO_X;
  70:main.c        ****     volatile double GYRO_Y;
  71:main.c        ****     volatile double GYRO_Z;
  72:main.c        ****     
  73:main.c        ****     //Variable to catch ADC output (2 bytes)
  74:main.c        ****     volatile uint8 ADC_Data_H;
  75:main.c        ****     volatile uint8 ADC_Data_L;
  76:main.c        ****     
  77:main.c        ****     
  78:main.c        ****     //Accel User Bank 0 to perform reset.
  79:main.c        ****     accel_WriteReg(REG_BANK_SEL,BANK0); 
ARM GAS  C:\Users\johnn\AppData\Local\Temp\ccAJfIRe.s 			page 4


  93              		.loc 1 79 0
  94 0010 0021     		movs	r1, #0
  95 0012 7F20     		movs	r0, #127
  96 0014 FFF7FEFF 		bl	accel_WriteReg
  97              	.LVL5:
  80:main.c        ****     MasterStatus = I2C_I2CMasterStatus();
  98              		.loc 1 80 0
  99 0018 FFF7FEFF 		bl	I2C_I2CMasterStatus
 100              	.LVL6:
 101 001c 80B2     		uxth	r0, r0
 102 001e 4E25     		movs	r5, #78
 103 0020 6D44     		add	r5, r5, sp
 104 0022 2880     		strh	r0, [r5]
  81:main.c        ****     checkWrite = accel_ReadReg(PWR_MGMT_1);
 105              		.loc 1 81 0
 106 0024 0620     		movs	r0, #6
 107 0026 FFF7FEFF 		bl	accel_ReadReg
 108              	.LVL7:
 109 002a 4D24     		movs	r4, #77
 110 002c 6C44     		add	r4, r4, sp
 111 002e 2070     		strb	r0, [r4]
  82:main.c        ****     //Start by resetting power management 1
  83:main.c        ****     accel_WriteReg(PWR_MGMT_1,0x80u);
 112              		.loc 1 83 0
 113 0030 8021     		movs	r1, #128
 114 0032 0620     		movs	r0, #6
 115 0034 FFF7FEFF 		bl	accel_WriteReg
 116              	.LVL8:
  84:main.c        ****     //Delay for restart
  85:main.c        ****     CyDelay(0x01u);
 117              		.loc 1 85 0
 118 0038 0120     		movs	r0, #1
 119 003a FFF7FEFF 		bl	CyDelay
 120              	.LVL9:
  86:main.c        ****     checkWrite = accel_ReadReg(PWR_MGMT_1);
 121              		.loc 1 86 0
 122 003e 0620     		movs	r0, #6
 123 0040 FFF7FEFF 		bl	accel_ReadReg
 124              	.LVL10:
 125 0044 2070     		strb	r0, [r4]
  87:main.c        ****     //Auto set clock
  88:main.c        ****     accel_WriteReg(PWR_MGMT_1,0x01u);
 126              		.loc 1 88 0
 127 0046 0121     		movs	r1, #1
 128 0048 0620     		movs	r0, #6
 129 004a FFF7FEFF 		bl	accel_WriteReg
 130              	.LVL11:
  89:main.c        ****     checkWrite = accel_ReadReg(PWR_MGMT_1);
 131              		.loc 1 89 0
 132 004e 0620     		movs	r0, #6
 133 0050 FFF7FEFF 		bl	accel_ReadReg
 134              	.LVL12:
 135 0054 2070     		strb	r0, [r4]
  90:main.c        ****     
  91:main.c        ****     checkWrite = accel_ReadReg(REG_BANK_SEL);
 136              		.loc 1 91 0
 137 0056 7F20     		movs	r0, #127
ARM GAS  C:\Users\johnn\AppData\Local\Temp\ccAJfIRe.s 			page 5


 138 0058 FFF7FEFF 		bl	accel_ReadReg
 139              	.LVL13:
 140 005c 2070     		strb	r0, [r4]
  92:main.c        ****     //Accel User Bank 2 to configure GYRO
  93:main.c        ****     accel_WriteReg(REG_BANK_SEL,BANK2);
 141              		.loc 1 93 0
 142 005e 3221     		movs	r1, #50
 143 0060 7F20     		movs	r0, #127
 144 0062 FFF7FEFF 		bl	accel_WriteReg
 145              	.LVL14:
  94:main.c        ****     checkWrite = accel_ReadReg(REG_BANK_SEL);
 146              		.loc 1 94 0
 147 0066 7F20     		movs	r0, #127
 148 0068 FFF7FEFF 		bl	accel_ReadReg
 149              	.LVL15:
 150 006c 2070     		strb	r0, [r4]
  95:main.c        ****     
  96:main.c        ****     //LPF Disabled. Gyro Full Scale Select +-250dps (131 division).
  97:main.c        ****     accel_WriteReg(GYRO_CONFIG_1,0x00u);
 151              		.loc 1 97 0
 152 006e 0021     		movs	r1, #0
 153 0070 0120     		movs	r0, #1
 154 0072 FFF7FEFF 		bl	accel_WriteReg
 155              	.LVL16:
  98:main.c        ****     //Debug point 1
  99:main.c        ****     checkWrite = accel_ReadReg(GYRO_CONFIG_1);
 156              		.loc 1 99 0
 157 0076 0120     		movs	r0, #1
 158 0078 FFF7FEFF 		bl	accel_ReadReg
 159              	.LVL17:
 160 007c 2070     		strb	r0, [r4]
 100:main.c        ****     
 101:main.c        ****     //±4g Full Scale (8192 Division)
 102:main.c        ****     accel_WriteReg(ACCEL_CONFIG_1,0x06u);
 161              		.loc 1 102 0
 162 007e 0621     		movs	r1, #6
 163 0080 1420     		movs	r0, #20
 164 0082 FFF7FEFF 		bl	accel_WriteReg
 165              	.LVL18:
 103:main.c        ****     checkWrite = accel_ReadReg(ACCEL_CONFIG_1);
 166              		.loc 1 103 0
 167 0086 1420     		movs	r0, #20
 168 0088 FFF7FEFF 		bl	accel_ReadReg
 169              	.LVL19:
 170 008c 2070     		strb	r0, [r4]
 104:main.c        ****     
 105:main.c        ****     //Accel User Bank 0 to configure the rest and to allow reading of accel and gyro in Bank 0.
 106:main.c        ****     accel_WriteReg(REG_BANK_SEL,BANK0); 
 171              		.loc 1 106 0
 172 008e 0021     		movs	r1, #0
 173 0090 7F20     		movs	r0, #127
 174 0092 FFF7FEFF 		bl	accel_WriteReg
 175              	.LVL20:
 107:main.c        ****     
 108:main.c        ****     MasterStatus = I2C_I2CMasterStatus();
 176              		.loc 1 108 0
 177 0096 FFF7FEFF 		bl	I2C_I2CMasterStatus
ARM GAS  C:\Users\johnn\AppData\Local\Temp\ccAJfIRe.s 			page 6


 178              	.LVL21:
 179 009a 80B2     		uxth	r0, r0
 180 009c 2880     		strh	r0, [r5]
 109:main.c        ****     
 110:main.c        ****     //Enable all accel and gyro
 111:main.c        ****     accel_WriteReg(PWR_MGMT_2,0x00u);
 181              		.loc 1 111 0
 182 009e 0021     		movs	r1, #0
 183 00a0 0720     		movs	r0, #7
 184 00a2 FFF7FEFF 		bl	accel_WriteReg
 185              	.LVL22:
 112:main.c        ****     MasterStatus = I2C_I2CMasterStatus();
 186              		.loc 1 112 0
 187 00a6 FFF7FEFF 		bl	I2C_I2CMasterStatus
 188              	.LVL23:
 189 00aa 80B2     		uxth	r0, r0
 190 00ac 2880     		strh	r0, [r5]
 113:main.c        **** 
 114:main.c        ****     //Write checks
 115:main.c        ****     checkWrite = accel_ReadReg(PWR_MGMT_1);
 191              		.loc 1 115 0
 192 00ae 0620     		movs	r0, #6
 193 00b0 FFF7FEFF 		bl	accel_ReadReg
 194              	.LVL24:
 195 00b4 2070     		strb	r0, [r4]
 116:main.c        ****     checkWrite = accel_ReadReg(PWR_MGMT_2);
 196              		.loc 1 116 0
 197 00b6 0720     		movs	r0, #7
 198 00b8 FFF7FEFF 		bl	accel_ReadReg
 199              	.LVL25:
 200 00bc 2070     		strb	r0, [r4]
 117:main.c        **** 
 118:main.c        ****     //Reset config to default
 119:main.c        ****     //ADC_Manual_Write(0x84u,0x83u);
 120:main.c        ****     ADC_WriteReg(0x84u,0x83u);
 201              		.loc 1 120 0
 202 00be 8321     		movs	r1, #131
 203 00c0 8420     		movs	r0, #132
 204 00c2 FFF7FEFF 		bl	ADC_WriteReg
 205              	.LVL26:
 206              	.L5:
 207              	.LBB2:
 121:main.c        ****     for(;;)
 122:main.c        ****     {
 123:main.c        ****         //BLE Processes
 124:main.c        ****         CyBle_ProcessEvents();
 208              		.loc 1 124 0 discriminator 1
 209 00c6 FFF7FEFF 		bl	CyBle_ProcessEvents
 210              	.LVL27:
 125:main.c        ****         
 126:main.c        ****         //=========================================================================================
 127:main.c        ****         //Accelerometer Section 
 128:main.c        ****        
 129:main.c        ****         //Testing the accel device ID
 130:main.c        ****         deviceID = accel_ReadReg(ACC_WHO_AM_I);//Expect 0xEA
 211              		.loc 1 130 0 discriminator 1
 212 00ca 0020     		movs	r0, #0
ARM GAS  C:\Users\johnn\AppData\Local\Temp\ccAJfIRe.s 			page 7


 213 00cc FFF7FEFF 		bl	accel_ReadReg
 214              	.LVL28:
 215 00d0 13AB     		add	r3, sp, #76
 216 00d2 1870     		strb	r0, [r3]
 131:main.c        ****         
 132:main.c        ****         //ACCEL Aquisition
 133:main.c        ****         ACCEL_X_L = accel_ReadReg(ACCEL_XOUT_L);
 217              		.loc 1 133 0 discriminator 1
 218 00d4 2E20     		movs	r0, #46
 219 00d6 FFF7FEFF 		bl	accel_ReadReg
 220              	.LVL29:
 221 00da 4B26     		movs	r6, #75
 222 00dc 6E44     		add	r6, r6, sp
 223 00de 3070     		strb	r0, [r6]
 134:main.c        ****         ACCEL_X_H = accel_ReadReg(ACCEL_XOUT_H);
 224              		.loc 1 134 0 discriminator 1
 225 00e0 2D20     		movs	r0, #45
 226 00e2 FFF7FEFF 		bl	accel_ReadReg
 227              	.LVL30:
 228 00e6 4A27     		movs	r7, #74
 229 00e8 6F44     		add	r7, r7, sp
 230 00ea 3870     		strb	r0, [r7]
 135:main.c        ****         ACCEL_Y_L = accel_ReadReg(ACCEL_YOUT_L);
 231              		.loc 1 135 0 discriminator 1
 232 00ec 3020     		movs	r0, #48
 233 00ee FFF7FEFF 		bl	accel_ReadReg
 234              	.LVL31:
 235 00f2 4924     		movs	r4, #73
 236 00f4 6C44     		add	r4, r4, sp
 237 00f6 2070     		strb	r0, [r4]
 136:main.c        ****         ACCEL_Y_H = accel_ReadReg(ACCEL_YOUT_H);
 238              		.loc 1 136 0 discriminator 1
 239 00f8 2F20     		movs	r0, #47
 240 00fa FFF7FEFF 		bl	accel_ReadReg
 241              	.LVL32:
 242 00fe 12AD     		add	r5, sp, #72
 243 0100 2870     		strb	r0, [r5]
 137:main.c        ****         ACCEL_Z_L = accel_ReadReg(ACCEL_ZOUT_L);
 244              		.loc 1 137 0 discriminator 1
 245 0102 3220     		movs	r0, #50
 246 0104 FFF7FEFF 		bl	accel_ReadReg
 247              	.LVL33:
 248 0108 6B46     		mov	r3, sp
 249 010a 4722     		movs	r2, #71
 250 010c 9B18     		adds	r3, r3, r2
 251 010e 1870     		strb	r0, [r3]
 138:main.c        ****         ACCEL_Z_H = accel_ReadReg(ACCEL_ZOUT_H);
 252              		.loc 1 138 0 discriminator 1
 253 0110 3120     		movs	r0, #49
 254 0112 FFF7FEFF 		bl	accel_ReadReg
 255              	.LVL34:
 256 0116 6B46     		mov	r3, sp
 257 0118 4622     		movs	r2, #70
 258 011a 9B18     		adds	r3, r3, r2
 259 011c 1870     		strb	r0, [r3]
 139:main.c        ****         
 140:main.c        ****         ACCEL_X = ((ACCEL_X_H << 8) | ACCEL_X_L)/2048.0;
ARM GAS  C:\Users\johnn\AppData\Local\Temp\ccAJfIRe.s 			page 8


 260              		.loc 1 140 0 discriminator 1
 261 011e 3878     		ldrb	r0, [r7]
 262 0120 0002     		lsls	r0, r0, #8
 263 0122 3378     		ldrb	r3, [r6]
 264 0124 1843     		orrs	r0, r3
 265 0126 FFF7FEFF 		bl	__aeabi_i2d
 266              	.LVL35:
 267 012a 0022     		movs	r2, #0
 268 012c FD23     		movs	r3, #253
 269 012e 9B05     		lsls	r3, r3, #22
 270 0130 FFF7FEFF 		bl	__aeabi_dmul
 271              	.LVL36:
 272 0134 0E90     		str	r0, [sp, #56]
 273 0136 0F91     		str	r1, [sp, #60]
 141:main.c        ****         ACCEL_Y = ((ACCEL_Y_H << 8) | ACCEL_Y_L)/2048.0;
 274              		.loc 1 141 0 discriminator 1
 275 0138 2878     		ldrb	r0, [r5]
 276 013a 0002     		lsls	r0, r0, #8
 277 013c 2378     		ldrb	r3, [r4]
 278 013e 1843     		orrs	r0, r3
 279 0140 FFF7FEFF 		bl	__aeabi_i2d
 280              	.LVL37:
 281 0144 0022     		movs	r2, #0
 282 0146 FD23     		movs	r3, #253
 283 0148 9B05     		lsls	r3, r3, #22
 284 014a FFF7FEFF 		bl	__aeabi_dmul
 285              	.LVL38:
 286 014e 0C90     		str	r0, [sp, #48]
 287 0150 0D91     		str	r1, [sp, #52]
 142:main.c        ****         ACCEL_Z = ((ACCEL_Z_H << 8) | ACCEL_Z_L)/2048.0;
 288              		.loc 1 142 0 discriminator 1
 289 0152 6B46     		mov	r3, sp
 290 0154 4622     		movs	r2, #70
 291 0156 9B18     		adds	r3, r3, r2
 292 0158 1878     		ldrb	r0, [r3]
 293 015a 0002     		lsls	r0, r0, #8
 294 015c 6B46     		mov	r3, sp
 295 015e 0132     		adds	r2, r2, #1
 296 0160 9B18     		adds	r3, r3, r2
 297 0162 1B78     		ldrb	r3, [r3]
 298 0164 1843     		orrs	r0, r3
 299 0166 FFF7FEFF 		bl	__aeabi_i2d
 300              	.LVL39:
 301 016a 0022     		movs	r2, #0
 302 016c FD23     		movs	r3, #253
 303 016e 9B05     		lsls	r3, r3, #22
 304 0170 FFF7FEFF 		bl	__aeabi_dmul
 305              	.LVL40:
 306 0174 0A90     		str	r0, [sp, #40]
 307 0176 0B91     		str	r1, [sp, #44]
 143:main.c        ****         
 144:main.c        ****         
 145:main.c        ****         //GYRO Aquisition
 146:main.c        ****         GYRO_X_L = accel_ReadReg(GYRO_XOUT_L);
 308              		.loc 1 146 0 discriminator 1
 309 0178 3420     		movs	r0, #52
 310 017a FFF7FEFF 		bl	accel_ReadReg
ARM GAS  C:\Users\johnn\AppData\Local\Temp\ccAJfIRe.s 			page 9


 311              	.LVL41:
 312 017e 2726     		movs	r6, #39
 313 0180 6E44     		add	r6, r6, sp
 314 0182 3070     		strb	r0, [r6]
 147:main.c        ****         GYRO_X_H = accel_ReadReg(GYRO_XOUT_H);
 315              		.loc 1 147 0 discriminator 1
 316 0184 3320     		movs	r0, #51
 317 0186 FFF7FEFF 		bl	accel_ReadReg
 318              	.LVL42:
 319 018a 2627     		movs	r7, #38
 320 018c 6F44     		add	r7, r7, sp
 321 018e 3870     		strb	r0, [r7]
 148:main.c        ****         GYRO_Y_L = accel_ReadReg(GYRO_YOUT_L);
 322              		.loc 1 148 0 discriminator 1
 323 0190 3620     		movs	r0, #54
 324 0192 FFF7FEFF 		bl	accel_ReadReg
 325              	.LVL43:
 326 0196 2524     		movs	r4, #37
 327 0198 6C44     		add	r4, r4, sp
 328 019a 2070     		strb	r0, [r4]
 149:main.c        ****         GYRO_Y_H = accel_ReadReg(GYRO_YOUT_H);
 329              		.loc 1 149 0 discriminator 1
 330 019c 3520     		movs	r0, #53
 331 019e FFF7FEFF 		bl	accel_ReadReg
 332              	.LVL44:
 333 01a2 09AD     		add	r5, sp, #36
 334 01a4 2870     		strb	r0, [r5]
 150:main.c        ****         GYRO_Z_L = accel_ReadReg(GYRO_ZOUT_L);
 335              		.loc 1 150 0 discriminator 1
 336 01a6 3820     		movs	r0, #56
 337 01a8 FFF7FEFF 		bl	accel_ReadReg
 338              	.LVL45:
 339 01ac 6B46     		mov	r3, sp
 340 01ae 2322     		movs	r2, #35
 341 01b0 9B18     		adds	r3, r3, r2
 342 01b2 1870     		strb	r0, [r3]
 151:main.c        ****         GYRO_Z_H = accel_ReadReg(GYRO_ZOUT_H);
 343              		.loc 1 151 0 discriminator 1
 344 01b4 3720     		movs	r0, #55
 345 01b6 FFF7FEFF 		bl	accel_ReadReg
 346              	.LVL46:
 347 01ba 6B46     		mov	r3, sp
 348 01bc 2222     		movs	r2, #34
 349 01be 9B18     		adds	r3, r3, r2
 350 01c0 1870     		strb	r0, [r3]
 152:main.c        ****         
 153:main.c        ****         GYRO_X = ((GYRO_X_H << 8) | GYRO_X_L)/131.0;
 351              		.loc 1 153 0 discriminator 1
 352 01c2 3878     		ldrb	r0, [r7]
 353 01c4 0002     		lsls	r0, r0, #8
 354 01c6 3378     		ldrb	r3, [r6]
 355 01c8 1843     		orrs	r0, r3
 356 01ca FFF7FEFF 		bl	__aeabi_i2d
 357              	.LVL47:
 358 01ce 0022     		movs	r2, #0
 359 01d0 164B     		ldr	r3, .L6+4
 360 01d2 FFF7FEFF 		bl	__aeabi_ddiv
ARM GAS  C:\Users\johnn\AppData\Local\Temp\ccAJfIRe.s 			page 10


 361              	.LVL48:
 362 01d6 0690     		str	r0, [sp, #24]
 363 01d8 0791     		str	r1, [sp, #28]
 154:main.c        ****         GYRO_Y = ((GYRO_Y_H << 8) | GYRO_Y_L)/131.0;
 364              		.loc 1 154 0 discriminator 1
 365 01da 2878     		ldrb	r0, [r5]
 366 01dc 0002     		lsls	r0, r0, #8
 367 01de 2378     		ldrb	r3, [r4]
 368 01e0 1843     		orrs	r0, r3
 369 01e2 FFF7FEFF 		bl	__aeabi_i2d
 370              	.LVL49:
 371 01e6 0022     		movs	r2, #0
 372 01e8 104B     		ldr	r3, .L6+4
 373 01ea FFF7FEFF 		bl	__aeabi_ddiv
 374              	.LVL50:
 375 01ee 0490     		str	r0, [sp, #16]
 376 01f0 0591     		str	r1, [sp, #20]
 155:main.c        ****         GYRO_Z = ((GYRO_Z_H << 8) | GYRO_Z_L)/131.0;
 377              		.loc 1 155 0 discriminator 1
 378 01f2 6B46     		mov	r3, sp
 379 01f4 2222     		movs	r2, #34
 380 01f6 9B18     		adds	r3, r3, r2
 381 01f8 1878     		ldrb	r0, [r3]
 382 01fa 0002     		lsls	r0, r0, #8
 383 01fc 6B46     		mov	r3, sp
 384 01fe 0132     		adds	r2, r2, #1
 385 0200 9B18     		adds	r3, r3, r2
 386 0202 1B78     		ldrb	r3, [r3]
 387 0204 1843     		orrs	r0, r3
 388 0206 FFF7FEFF 		bl	__aeabi_i2d
 389              	.LVL51:
 390 020a 0022     		movs	r2, #0
 391 020c 074B     		ldr	r3, .L6+4
 392 020e FFF7FEFF 		bl	__aeabi_ddiv
 393              	.LVL52:
 394 0212 0290     		str	r0, [sp, #8]
 395 0214 0391     		str	r1, [sp, #12]
 156:main.c        ****      
 157:main.c        ****         //Random delay intented for limiting data collection rate.
 158:main.c        ****         CyDelay(0x64);
 396              		.loc 1 158 0 discriminator 1
 397 0216 6420     		movs	r0, #100
 398 0218 FFF7FEFF 		bl	CyDelay
 399              	.LVL53:
 159:main.c        ****         
 160:main.c        ****         //=========================================================================================
 161:main.c        ****         //ADC Section
 162:main.c        ****         
 163:main.c        ****         //Read conversion result. Using manual read. (Doesn't work yet)
 164:main.c        ****         //volatile uint16 ADC_Data_Buffer = ADC_Manual_Read();
 165:main.c        ****         
 166:main.c        ****         //Read conversion result. (Raw data)
 167:main.c        ****         volatile uint16 ADC_Data_Buffer = ADC_ReadReg();
 400              		.loc 1 167 0 discriminator 1
 401 021c FFF7FEFF 		bl	ADC_ReadReg
 402              	.LVL54:
 403 0220 6B46     		mov	r3, sp
ARM GAS  C:\Users\johnn\AppData\Local\Temp\ccAJfIRe.s 			page 11


 404 0222 D880     		strh	r0, [r3, #6]
 405 0224 4FE7     		b	.L5
 406              	.L7:
 407 0226 C046     		.align	2
 408              	.L6:
 409 0228 00000000 		.word	Stack_Handler
 410 022c 00606040 		.word	1080057856
 411              	.LBE2:
 412              		.cfi_endproc
 413              	.LFE36:
 414              		.size	main, .-main
 415              		.text
 416              	.Letext0:
 417              		.file 2 "Generated_Source\\PSoC4/cytypes.h"
 418              		.file 3 "Generated_Source\\PSoC4/BLE_1.h"
 419              		.file 4 "Generated_Source\\PSoC4/BLE_1_Stack.h"
 420              		.file 5 "./JI2C.h"
 421              		.file 6 "Generated_Source\\PSoC4/CyLib.h"
 422              		.file 7 "Generated_Source\\PSoC4/I2C.h"
 423              		.file 8 "Generated_Source\\PSoC4/I2C_I2C.h"