ARM GAS  C:\Users\johnn\AppData\Local\Temp\ccsZU3kn.s 			page 1


   1              		.syntax unified
   2              		.cpu cortex-m0
   3              		.fpu softvfp
   4              		.eabi_attribute 20, 1
   5              		.eabi_attribute 21, 1
   6              		.eabi_attribute 23, 3
   7              		.eabi_attribute 24, 1
   8              		.eabi_attribute 25, 1
   9              		.eabi_attribute 26, 1
  10              		.eabi_attribute 30, 1
  11              		.eabi_attribute 34, 0
  12              		.eabi_attribute 18, 4
  13              		.thumb
  14              		.syntax unified
  15              		.file	"UART_OUT_UART.c"
  16              		.text
  17              	.Ltext0:
  18              		.cfi_sections	.debug_frame
  19              		.section	.text.UART_OUT_UartInit,"ax",%progbits
  20              		.align	2
  21              		.global	UART_OUT_UartInit
  22              		.code	16
  23              		.thumb_func
  24              		.type	UART_OUT_UartInit, %function
  25              	UART_OUT_UartInit:
  26              	.LFB2:
  27              		.file 1 "Generated_Source\\PSoC4\\UART_OUT_UART.c"
   1:Generated_Source\PSoC4/UART_OUT_UART.c **** /***************************************************************************//**
   2:Generated_Source\PSoC4/UART_OUT_UART.c **** * \file UART_OUT_UART.c
   3:Generated_Source\PSoC4/UART_OUT_UART.c **** * \version 4.0
   4:Generated_Source\PSoC4/UART_OUT_UART.c **** *
   5:Generated_Source\PSoC4/UART_OUT_UART.c **** * \brief
   6:Generated_Source\PSoC4/UART_OUT_UART.c **** *  This file provides the source code to the API for the SCB Component in
   7:Generated_Source\PSoC4/UART_OUT_UART.c **** *  UART mode.
   8:Generated_Source\PSoC4/UART_OUT_UART.c **** *
   9:Generated_Source\PSoC4/UART_OUT_UART.c **** * Note:
  10:Generated_Source\PSoC4/UART_OUT_UART.c **** *
  11:Generated_Source\PSoC4/UART_OUT_UART.c **** *******************************************************************************
  12:Generated_Source\PSoC4/UART_OUT_UART.c **** * \copyright
  13:Generated_Source\PSoC4/UART_OUT_UART.c **** * Copyright 2013-2017, Cypress Semiconductor Corporation.  All rights reserved.
  14:Generated_Source\PSoC4/UART_OUT_UART.c **** * You may use this file only in accordance with the license, terms, conditions,
  15:Generated_Source\PSoC4/UART_OUT_UART.c **** * disclaimers, and limitations in the end user license agreement accompanying
  16:Generated_Source\PSoC4/UART_OUT_UART.c **** * the software package with which this file was provided.
  17:Generated_Source\PSoC4/UART_OUT_UART.c **** *******************************************************************************/
  18:Generated_Source\PSoC4/UART_OUT_UART.c **** 
  19:Generated_Source\PSoC4/UART_OUT_UART.c **** #include "UART_OUT_PVT.h"
  20:Generated_Source\PSoC4/UART_OUT_UART.c **** #include "UART_OUT_SPI_UART_PVT.h"
  21:Generated_Source\PSoC4/UART_OUT_UART.c **** #include "cyapicallbacks.h"
  22:Generated_Source\PSoC4/UART_OUT_UART.c **** 
  23:Generated_Source\PSoC4/UART_OUT_UART.c **** #if (UART_OUT_UART_WAKE_ENABLE_CONST && UART_OUT_UART_RX_WAKEUP_IRQ)
  24:Generated_Source\PSoC4/UART_OUT_UART.c ****     /**
  25:Generated_Source\PSoC4/UART_OUT_UART.c ****     * \addtogroup group_globals
  26:Generated_Source\PSoC4/UART_OUT_UART.c ****     * \{
  27:Generated_Source\PSoC4/UART_OUT_UART.c ****     */
  28:Generated_Source\PSoC4/UART_OUT_UART.c ****     /** This global variable determines whether to enable Skip Start
  29:Generated_Source\PSoC4/UART_OUT_UART.c ****     * functionality when UART_OUT_Sleep() function is called:
  30:Generated_Source\PSoC4/UART_OUT_UART.c ****     * 0 – disable, other values – enable. Default value is 1.
ARM GAS  C:\Users\johnn\AppData\Local\Temp\ccsZU3kn.s 			page 2


  31:Generated_Source\PSoC4/UART_OUT_UART.c ****     * It is only available when Enable wakeup from Deep Sleep Mode is enabled.
  32:Generated_Source\PSoC4/UART_OUT_UART.c ****     */
  33:Generated_Source\PSoC4/UART_OUT_UART.c ****     uint8 UART_OUT_skipStart = 1u;
  34:Generated_Source\PSoC4/UART_OUT_UART.c ****     /** \} globals */
  35:Generated_Source\PSoC4/UART_OUT_UART.c **** #endif /* (UART_OUT_UART_WAKE_ENABLE_CONST && UART_OUT_UART_RX_WAKEUP_IRQ) */
  36:Generated_Source\PSoC4/UART_OUT_UART.c **** 
  37:Generated_Source\PSoC4/UART_OUT_UART.c **** #if(UART_OUT_SCB_MODE_UNCONFIG_CONST_CFG)
  38:Generated_Source\PSoC4/UART_OUT_UART.c **** 
  39:Generated_Source\PSoC4/UART_OUT_UART.c ****     /***************************************
  40:Generated_Source\PSoC4/UART_OUT_UART.c ****     *  Configuration Structure Initialization
  41:Generated_Source\PSoC4/UART_OUT_UART.c ****     ***************************************/
  42:Generated_Source\PSoC4/UART_OUT_UART.c **** 
  43:Generated_Source\PSoC4/UART_OUT_UART.c ****     const UART_OUT_UART_INIT_STRUCT UART_OUT_configUart =
  44:Generated_Source\PSoC4/UART_OUT_UART.c ****     {
  45:Generated_Source\PSoC4/UART_OUT_UART.c ****         UART_OUT_UART_SUB_MODE,
  46:Generated_Source\PSoC4/UART_OUT_UART.c ****         UART_OUT_UART_DIRECTION,
  47:Generated_Source\PSoC4/UART_OUT_UART.c ****         UART_OUT_UART_DATA_BITS_NUM,
  48:Generated_Source\PSoC4/UART_OUT_UART.c ****         UART_OUT_UART_PARITY_TYPE,
  49:Generated_Source\PSoC4/UART_OUT_UART.c ****         UART_OUT_UART_STOP_BITS_NUM,
  50:Generated_Source\PSoC4/UART_OUT_UART.c ****         UART_OUT_UART_OVS_FACTOR,
  51:Generated_Source\PSoC4/UART_OUT_UART.c ****         UART_OUT_UART_IRDA_LOW_POWER,
  52:Generated_Source\PSoC4/UART_OUT_UART.c ****         UART_OUT_UART_MEDIAN_FILTER_ENABLE,
  53:Generated_Source\PSoC4/UART_OUT_UART.c ****         UART_OUT_UART_RETRY_ON_NACK,
  54:Generated_Source\PSoC4/UART_OUT_UART.c ****         UART_OUT_UART_IRDA_POLARITY,
  55:Generated_Source\PSoC4/UART_OUT_UART.c ****         UART_OUT_UART_DROP_ON_PARITY_ERR,
  56:Generated_Source\PSoC4/UART_OUT_UART.c ****         UART_OUT_UART_DROP_ON_FRAME_ERR,
  57:Generated_Source\PSoC4/UART_OUT_UART.c ****         UART_OUT_UART_WAKE_ENABLE,
  58:Generated_Source\PSoC4/UART_OUT_UART.c ****         0u,
  59:Generated_Source\PSoC4/UART_OUT_UART.c ****         NULL,
  60:Generated_Source\PSoC4/UART_OUT_UART.c ****         0u,
  61:Generated_Source\PSoC4/UART_OUT_UART.c ****         NULL,
  62:Generated_Source\PSoC4/UART_OUT_UART.c ****         UART_OUT_UART_MP_MODE_ENABLE,
  63:Generated_Source\PSoC4/UART_OUT_UART.c ****         UART_OUT_UART_MP_ACCEPT_ADDRESS,
  64:Generated_Source\PSoC4/UART_OUT_UART.c ****         UART_OUT_UART_MP_RX_ADDRESS,
  65:Generated_Source\PSoC4/UART_OUT_UART.c ****         UART_OUT_UART_MP_RX_ADDRESS_MASK,
  66:Generated_Source\PSoC4/UART_OUT_UART.c ****         (uint32) UART_OUT_SCB_IRQ_INTERNAL,
  67:Generated_Source\PSoC4/UART_OUT_UART.c ****         UART_OUT_UART_INTR_RX_MASK,
  68:Generated_Source\PSoC4/UART_OUT_UART.c ****         UART_OUT_UART_RX_TRIGGER_LEVEL,
  69:Generated_Source\PSoC4/UART_OUT_UART.c ****         UART_OUT_UART_INTR_TX_MASK,
  70:Generated_Source\PSoC4/UART_OUT_UART.c ****         UART_OUT_UART_TX_TRIGGER_LEVEL,
  71:Generated_Source\PSoC4/UART_OUT_UART.c ****         (uint8) UART_OUT_UART_BYTE_MODE_ENABLE,
  72:Generated_Source\PSoC4/UART_OUT_UART.c ****         (uint8) UART_OUT_UART_CTS_ENABLE,
  73:Generated_Source\PSoC4/UART_OUT_UART.c ****         (uint8) UART_OUT_UART_CTS_POLARITY,
  74:Generated_Source\PSoC4/UART_OUT_UART.c ****         (uint8) UART_OUT_UART_RTS_POLARITY,
  75:Generated_Source\PSoC4/UART_OUT_UART.c ****         (uint8) UART_OUT_UART_RTS_FIFO_LEVEL,
  76:Generated_Source\PSoC4/UART_OUT_UART.c ****         (uint8) UART_OUT_UART_RX_BREAK_WIDTH
  77:Generated_Source\PSoC4/UART_OUT_UART.c ****     };
  78:Generated_Source\PSoC4/UART_OUT_UART.c **** 
  79:Generated_Source\PSoC4/UART_OUT_UART.c **** 
  80:Generated_Source\PSoC4/UART_OUT_UART.c ****     /*******************************************************************************
  81:Generated_Source\PSoC4/UART_OUT_UART.c ****     * Function Name: UART_OUT_UartInit
  82:Generated_Source\PSoC4/UART_OUT_UART.c ****     ****************************************************************************//**
  83:Generated_Source\PSoC4/UART_OUT_UART.c ****     *
  84:Generated_Source\PSoC4/UART_OUT_UART.c ****     *  Configures the UART_OUT for UART operation.
  85:Generated_Source\PSoC4/UART_OUT_UART.c ****     *
  86:Generated_Source\PSoC4/UART_OUT_UART.c ****     *  This function is intended specifically to be used when the UART_OUT
  87:Generated_Source\PSoC4/UART_OUT_UART.c ****     *  configuration is set to “Unconfigured UART_OUT” in the customizer.
ARM GAS  C:\Users\johnn\AppData\Local\Temp\ccsZU3kn.s 			page 3


  88:Generated_Source\PSoC4/UART_OUT_UART.c ****     *  After initializing the UART_OUT in UART mode using this function,
  89:Generated_Source\PSoC4/UART_OUT_UART.c ****     *  the component can be enabled using the UART_OUT_Start() or
  90:Generated_Source\PSoC4/UART_OUT_UART.c ****     * UART_OUT_Enable() function.
  91:Generated_Source\PSoC4/UART_OUT_UART.c ****     *  This function uses a pointer to a structure that provides the configuration
  92:Generated_Source\PSoC4/UART_OUT_UART.c ****     *  settings. This structure contains the same information that would otherwise
  93:Generated_Source\PSoC4/UART_OUT_UART.c ****     *  be provided by the customizer settings.
  94:Generated_Source\PSoC4/UART_OUT_UART.c ****     *
  95:Generated_Source\PSoC4/UART_OUT_UART.c ****     *  \param config: pointer to a structure that contains the following list of
  96:Generated_Source\PSoC4/UART_OUT_UART.c ****     *   fields. These fields match the selections available in the customizer.
  97:Generated_Source\PSoC4/UART_OUT_UART.c ****     *   Refer to the customizer for further description of the settings.
  98:Generated_Source\PSoC4/UART_OUT_UART.c ****     *
  99:Generated_Source\PSoC4/UART_OUT_UART.c ****     *******************************************************************************/
 100:Generated_Source\PSoC4/UART_OUT_UART.c ****     void UART_OUT_UartInit(const UART_OUT_UART_INIT_STRUCT *config)
 101:Generated_Source\PSoC4/UART_OUT_UART.c ****     {
 102:Generated_Source\PSoC4/UART_OUT_UART.c ****         uint32 pinsConfig;
 103:Generated_Source\PSoC4/UART_OUT_UART.c **** 
 104:Generated_Source\PSoC4/UART_OUT_UART.c ****         if (NULL == config)
 105:Generated_Source\PSoC4/UART_OUT_UART.c ****         {
 106:Generated_Source\PSoC4/UART_OUT_UART.c ****             CYASSERT(0u != 0u); /* Halt execution due to bad function parameter */
 107:Generated_Source\PSoC4/UART_OUT_UART.c ****         }
 108:Generated_Source\PSoC4/UART_OUT_UART.c ****         else
 109:Generated_Source\PSoC4/UART_OUT_UART.c ****         {
 110:Generated_Source\PSoC4/UART_OUT_UART.c ****             /* Get direction to configure UART pins: TX, RX or TX+RX */
 111:Generated_Source\PSoC4/UART_OUT_UART.c ****             pinsConfig  = config->direction;
 112:Generated_Source\PSoC4/UART_OUT_UART.c **** 
 113:Generated_Source\PSoC4/UART_OUT_UART.c ****         #if !(UART_OUT_CY_SCBIP_V0 || UART_OUT_CY_SCBIP_V1)
 114:Generated_Source\PSoC4/UART_OUT_UART.c ****             /* Add RTS and CTS pins to configure */
 115:Generated_Source\PSoC4/UART_OUT_UART.c ****             pinsConfig |= (0u != config->rtsRxFifoLevel) ? (UART_OUT_UART_RTS_PIN_ENABLE) : (0u);
 116:Generated_Source\PSoC4/UART_OUT_UART.c ****             pinsConfig |= (0u != config->enableCts)      ? (UART_OUT_UART_CTS_PIN_ENABLE) : (0u);
 117:Generated_Source\PSoC4/UART_OUT_UART.c ****         #endif /* !(UART_OUT_CY_SCBIP_V0 || UART_OUT_CY_SCBIP_V1) */
 118:Generated_Source\PSoC4/UART_OUT_UART.c **** 
 119:Generated_Source\PSoC4/UART_OUT_UART.c ****             /* Configure pins */
 120:Generated_Source\PSoC4/UART_OUT_UART.c ****             UART_OUT_SetPins(UART_OUT_SCB_MODE_UART, config->mode, pinsConfig);
 121:Generated_Source\PSoC4/UART_OUT_UART.c **** 
 122:Generated_Source\PSoC4/UART_OUT_UART.c ****             /* Store internal configuration */
 123:Generated_Source\PSoC4/UART_OUT_UART.c ****             UART_OUT_scbMode       = (uint8) UART_OUT_SCB_MODE_UART;
 124:Generated_Source\PSoC4/UART_OUT_UART.c ****             UART_OUT_scbEnableWake = (uint8) config->enableWake;
 125:Generated_Source\PSoC4/UART_OUT_UART.c ****             UART_OUT_scbEnableIntr = (uint8) config->enableInterrupt;
 126:Generated_Source\PSoC4/UART_OUT_UART.c **** 
 127:Generated_Source\PSoC4/UART_OUT_UART.c ****             /* Set RX direction internal variables */
 128:Generated_Source\PSoC4/UART_OUT_UART.c ****             UART_OUT_rxBuffer      =         config->rxBuffer;
 129:Generated_Source\PSoC4/UART_OUT_UART.c ****             UART_OUT_rxDataBits    = (uint8) config->dataBits;
 130:Generated_Source\PSoC4/UART_OUT_UART.c ****             UART_OUT_rxBufferSize  =         config->rxBufferSize;
 131:Generated_Source\PSoC4/UART_OUT_UART.c **** 
 132:Generated_Source\PSoC4/UART_OUT_UART.c ****             /* Set TX direction internal variables */
 133:Generated_Source\PSoC4/UART_OUT_UART.c ****             UART_OUT_txBuffer      =         config->txBuffer;
 134:Generated_Source\PSoC4/UART_OUT_UART.c ****             UART_OUT_txDataBits    = (uint8) config->dataBits;
 135:Generated_Source\PSoC4/UART_OUT_UART.c ****             UART_OUT_txBufferSize  =         config->txBufferSize;
 136:Generated_Source\PSoC4/UART_OUT_UART.c **** 
 137:Generated_Source\PSoC4/UART_OUT_UART.c ****             /* Configure UART interface */
 138:Generated_Source\PSoC4/UART_OUT_UART.c ****             if(UART_OUT_UART_MODE_IRDA == config->mode)
 139:Generated_Source\PSoC4/UART_OUT_UART.c ****             {
 140:Generated_Source\PSoC4/UART_OUT_UART.c ****                 /* OVS settings: IrDA */
 141:Generated_Source\PSoC4/UART_OUT_UART.c ****                 UART_OUT_CTRL_REG  = ((0u != config->enableIrdaLowPower) ?
 142:Generated_Source\PSoC4/UART_OUT_UART.c ****                                                 (UART_OUT_UART_GET_CTRL_OVS_IRDA_LP(config->oversam
 143:Generated_Source\PSoC4/UART_OUT_UART.c ****                                                 (UART_OUT_CTRL_OVS_IRDA_OVS16));
 144:Generated_Source\PSoC4/UART_OUT_UART.c ****             }
ARM GAS  C:\Users\johnn\AppData\Local\Temp\ccsZU3kn.s 			page 4


 145:Generated_Source\PSoC4/UART_OUT_UART.c ****             else
 146:Generated_Source\PSoC4/UART_OUT_UART.c ****             {
 147:Generated_Source\PSoC4/UART_OUT_UART.c ****                 /* OVS settings: UART and SmartCard */
 148:Generated_Source\PSoC4/UART_OUT_UART.c ****                 UART_OUT_CTRL_REG  = UART_OUT_GET_CTRL_OVS(config->oversample);
 149:Generated_Source\PSoC4/UART_OUT_UART.c ****             }
 150:Generated_Source\PSoC4/UART_OUT_UART.c **** 
 151:Generated_Source\PSoC4/UART_OUT_UART.c ****             UART_OUT_CTRL_REG     |= UART_OUT_GET_CTRL_BYTE_MODE  (config->enableByteMode)      |
 152:Generated_Source\PSoC4/UART_OUT_UART.c ****                                              UART_OUT_GET_CTRL_ADDR_ACCEPT(config->multiprocAcceptA
 153:Generated_Source\PSoC4/UART_OUT_UART.c ****                                              UART_OUT_CTRL_UART;
 154:Generated_Source\PSoC4/UART_OUT_UART.c **** 
 155:Generated_Source\PSoC4/UART_OUT_UART.c ****             /* Configure sub-mode: UART, SmartCard or IrDA */
 156:Generated_Source\PSoC4/UART_OUT_UART.c ****             UART_OUT_UART_CTRL_REG = UART_OUT_GET_UART_CTRL_MODE(config->mode);
 157:Generated_Source\PSoC4/UART_OUT_UART.c **** 
 158:Generated_Source\PSoC4/UART_OUT_UART.c ****             /* Configure RX direction */
 159:Generated_Source\PSoC4/UART_OUT_UART.c ****             UART_OUT_UART_RX_CTRL_REG = UART_OUT_GET_UART_RX_CTRL_MODE(config->stopBits)           
 160:Generated_Source\PSoC4/UART_OUT_UART.c ****                                         UART_OUT_GET_UART_RX_CTRL_POLARITY(config->enableInvertedRx
 161:Generated_Source\PSoC4/UART_OUT_UART.c ****                                         UART_OUT_GET_UART_RX_CTRL_MP_MODE(config->enableMultiproc) 
 162:Generated_Source\PSoC4/UART_OUT_UART.c ****                                         UART_OUT_GET_UART_RX_CTRL_DROP_ON_PARITY_ERR(config->dropOn
 163:Generated_Source\PSoC4/UART_OUT_UART.c ****                                         UART_OUT_GET_UART_RX_CTRL_DROP_ON_FRAME_ERR(config->dropOnF
 164:Generated_Source\PSoC4/UART_OUT_UART.c ****                                         UART_OUT_GET_UART_RX_CTRL_BREAK_WIDTH(config->breakWidth);
 165:Generated_Source\PSoC4/UART_OUT_UART.c **** 
 166:Generated_Source\PSoC4/UART_OUT_UART.c ****             if(UART_OUT_UART_PARITY_NONE != config->parity)
 167:Generated_Source\PSoC4/UART_OUT_UART.c ****             {
 168:Generated_Source\PSoC4/UART_OUT_UART.c ****                UART_OUT_UART_RX_CTRL_REG |= UART_OUT_GET_UART_RX_CTRL_PARITY(config->parity) |
 169:Generated_Source\PSoC4/UART_OUT_UART.c ****                                                     UART_OUT_UART_RX_CTRL_PARITY_ENABLED;
 170:Generated_Source\PSoC4/UART_OUT_UART.c ****             }
 171:Generated_Source\PSoC4/UART_OUT_UART.c **** 
 172:Generated_Source\PSoC4/UART_OUT_UART.c ****             UART_OUT_RX_CTRL_REG      = UART_OUT_GET_RX_CTRL_DATA_WIDTH(config->dataBits)       |
 173:Generated_Source\PSoC4/UART_OUT_UART.c ****                                                 UART_OUT_GET_RX_CTRL_MEDIAN(config->enableMedianFil
 174:Generated_Source\PSoC4/UART_OUT_UART.c ****                                                 UART_OUT_GET_UART_RX_CTRL_ENABLED(config->direction
 175:Generated_Source\PSoC4/UART_OUT_UART.c **** 
 176:Generated_Source\PSoC4/UART_OUT_UART.c ****             UART_OUT_RX_FIFO_CTRL_REG = UART_OUT_GET_RX_FIFO_CTRL_TRIGGER_LEVEL(config->rxTriggerLe
 177:Generated_Source\PSoC4/UART_OUT_UART.c **** 
 178:Generated_Source\PSoC4/UART_OUT_UART.c ****             /* Configure MP address */
 179:Generated_Source\PSoC4/UART_OUT_UART.c ****             UART_OUT_RX_MATCH_REG     = UART_OUT_GET_RX_MATCH_ADDR(config->multiprocAddr) |
 180:Generated_Source\PSoC4/UART_OUT_UART.c ****                                                 UART_OUT_GET_RX_MATCH_MASK(config->multiprocAddrMas
 181:Generated_Source\PSoC4/UART_OUT_UART.c **** 
 182:Generated_Source\PSoC4/UART_OUT_UART.c ****             /* Configure RX direction */
 183:Generated_Source\PSoC4/UART_OUT_UART.c ****             UART_OUT_UART_TX_CTRL_REG = UART_OUT_GET_UART_TX_CTRL_MODE(config->stopBits) |
 184:Generated_Source\PSoC4/UART_OUT_UART.c ****                                                 UART_OUT_GET_UART_TX_CTRL_RETRY_NACK(config->enable
 185:Generated_Source\PSoC4/UART_OUT_UART.c **** 
 186:Generated_Source\PSoC4/UART_OUT_UART.c ****             if(UART_OUT_UART_PARITY_NONE != config->parity)
 187:Generated_Source\PSoC4/UART_OUT_UART.c ****             {
 188:Generated_Source\PSoC4/UART_OUT_UART.c ****                UART_OUT_UART_TX_CTRL_REG |= UART_OUT_GET_UART_TX_CTRL_PARITY(config->parity) |
 189:Generated_Source\PSoC4/UART_OUT_UART.c ****                                                     UART_OUT_UART_TX_CTRL_PARITY_ENABLED;
 190:Generated_Source\PSoC4/UART_OUT_UART.c ****             }
 191:Generated_Source\PSoC4/UART_OUT_UART.c **** 
 192:Generated_Source\PSoC4/UART_OUT_UART.c ****             UART_OUT_TX_CTRL_REG      = UART_OUT_GET_TX_CTRL_DATA_WIDTH(config->dataBits)    |
 193:Generated_Source\PSoC4/UART_OUT_UART.c ****                                                 UART_OUT_GET_UART_TX_CTRL_ENABLED(config->direction
 194:Generated_Source\PSoC4/UART_OUT_UART.c **** 
 195:Generated_Source\PSoC4/UART_OUT_UART.c ****             UART_OUT_TX_FIFO_CTRL_REG = UART_OUT_GET_TX_FIFO_CTRL_TRIGGER_LEVEL(config->txTriggerLe
 196:Generated_Source\PSoC4/UART_OUT_UART.c **** 
 197:Generated_Source\PSoC4/UART_OUT_UART.c ****         #if !(UART_OUT_CY_SCBIP_V0 || UART_OUT_CY_SCBIP_V1)
 198:Generated_Source\PSoC4/UART_OUT_UART.c ****             UART_OUT_UART_FLOW_CTRL_REG = UART_OUT_GET_UART_FLOW_CTRL_CTS_ENABLE(config->enableCts)
 199:Generated_Source\PSoC4/UART_OUT_UART.c ****                                             UART_OUT_GET_UART_FLOW_CTRL_CTS_POLARITY (config->ctsPo
 200:Generated_Source\PSoC4/UART_OUT_UART.c ****                                             UART_OUT_GET_UART_FLOW_CTRL_RTS_POLARITY (config->rtsPo
 201:Generated_Source\PSoC4/UART_OUT_UART.c ****                                             UART_OUT_GET_UART_FLOW_CTRL_TRIGGER_LEVEL(config->rtsRx
ARM GAS  C:\Users\johnn\AppData\Local\Temp\ccsZU3kn.s 			page 5


 202:Generated_Source\PSoC4/UART_OUT_UART.c ****         #endif /* !(UART_OUT_CY_SCBIP_V0 || UART_OUT_CY_SCBIP_V1) */
 203:Generated_Source\PSoC4/UART_OUT_UART.c **** 
 204:Generated_Source\PSoC4/UART_OUT_UART.c ****             /* Configure interrupt with UART handler but do not enable it */
 205:Generated_Source\PSoC4/UART_OUT_UART.c ****             CyIntDisable    (UART_OUT_ISR_NUMBER);
 206:Generated_Source\PSoC4/UART_OUT_UART.c ****             CyIntSetPriority(UART_OUT_ISR_NUMBER, UART_OUT_ISR_PRIORITY);
 207:Generated_Source\PSoC4/UART_OUT_UART.c ****             (void) CyIntSetVector(UART_OUT_ISR_NUMBER, &UART_OUT_SPI_UART_ISR);
 208:Generated_Source\PSoC4/UART_OUT_UART.c **** 
 209:Generated_Source\PSoC4/UART_OUT_UART.c ****             /* Configure WAKE interrupt */
 210:Generated_Source\PSoC4/UART_OUT_UART.c ****         #if(UART_OUT_UART_RX_WAKEUP_IRQ)
 211:Generated_Source\PSoC4/UART_OUT_UART.c ****             CyIntDisable    (UART_OUT_RX_WAKE_ISR_NUMBER);
 212:Generated_Source\PSoC4/UART_OUT_UART.c ****             CyIntSetPriority(UART_OUT_RX_WAKE_ISR_NUMBER, UART_OUT_RX_WAKE_ISR_PRIORITY);
 213:Generated_Source\PSoC4/UART_OUT_UART.c ****             (void) CyIntSetVector(UART_OUT_RX_WAKE_ISR_NUMBER, &UART_OUT_UART_WAKEUP_ISR);
 214:Generated_Source\PSoC4/UART_OUT_UART.c ****         #endif /* (UART_OUT_UART_RX_WAKEUP_IRQ) */
 215:Generated_Source\PSoC4/UART_OUT_UART.c **** 
 216:Generated_Source\PSoC4/UART_OUT_UART.c ****             /* Configure interrupt sources */
 217:Generated_Source\PSoC4/UART_OUT_UART.c ****             UART_OUT_INTR_I2C_EC_MASK_REG = UART_OUT_NO_INTR_SOURCES;
 218:Generated_Source\PSoC4/UART_OUT_UART.c ****             UART_OUT_INTR_SPI_EC_MASK_REG = UART_OUT_NO_INTR_SOURCES;
 219:Generated_Source\PSoC4/UART_OUT_UART.c ****             UART_OUT_INTR_SLAVE_MASK_REG  = UART_OUT_NO_INTR_SOURCES;
 220:Generated_Source\PSoC4/UART_OUT_UART.c ****             UART_OUT_INTR_MASTER_MASK_REG = UART_OUT_NO_INTR_SOURCES;
 221:Generated_Source\PSoC4/UART_OUT_UART.c ****             UART_OUT_INTR_RX_MASK_REG     = config->rxInterruptMask;
 222:Generated_Source\PSoC4/UART_OUT_UART.c ****             UART_OUT_INTR_TX_MASK_REG     = config->txInterruptMask;
 223:Generated_Source\PSoC4/UART_OUT_UART.c **** 
 224:Generated_Source\PSoC4/UART_OUT_UART.c ****             /* Configure TX interrupt sources to restore. */
 225:Generated_Source\PSoC4/UART_OUT_UART.c ****             UART_OUT_IntrTxMask = LO16(UART_OUT_INTR_TX_MASK_REG);
 226:Generated_Source\PSoC4/UART_OUT_UART.c **** 
 227:Generated_Source\PSoC4/UART_OUT_UART.c ****             /* Clear RX buffer indexes */
 228:Generated_Source\PSoC4/UART_OUT_UART.c ****             UART_OUT_rxBufferHead     = 0u;
 229:Generated_Source\PSoC4/UART_OUT_UART.c ****             UART_OUT_rxBufferTail     = 0u;
 230:Generated_Source\PSoC4/UART_OUT_UART.c ****             UART_OUT_rxBufferOverflow = 0u;
 231:Generated_Source\PSoC4/UART_OUT_UART.c **** 
 232:Generated_Source\PSoC4/UART_OUT_UART.c ****             /* Clear TX buffer indexes */
 233:Generated_Source\PSoC4/UART_OUT_UART.c ****             UART_OUT_txBufferHead = 0u;
 234:Generated_Source\PSoC4/UART_OUT_UART.c ****             UART_OUT_txBufferTail = 0u;
 235:Generated_Source\PSoC4/UART_OUT_UART.c ****         }
 236:Generated_Source\PSoC4/UART_OUT_UART.c ****     }
 237:Generated_Source\PSoC4/UART_OUT_UART.c **** 
 238:Generated_Source\PSoC4/UART_OUT_UART.c **** #else
 239:Generated_Source\PSoC4/UART_OUT_UART.c **** 
 240:Generated_Source\PSoC4/UART_OUT_UART.c ****     /*******************************************************************************
 241:Generated_Source\PSoC4/UART_OUT_UART.c ****     * Function Name: UART_OUT_UartInit
 242:Generated_Source\PSoC4/UART_OUT_UART.c ****     ****************************************************************************//**
 243:Generated_Source\PSoC4/UART_OUT_UART.c ****     *
 244:Generated_Source\PSoC4/UART_OUT_UART.c ****     *  Configures the SCB for the UART operation.
 245:Generated_Source\PSoC4/UART_OUT_UART.c ****     *
 246:Generated_Source\PSoC4/UART_OUT_UART.c ****     *******************************************************************************/
 247:Generated_Source\PSoC4/UART_OUT_UART.c ****     void UART_OUT_UartInit(void)
 248:Generated_Source\PSoC4/UART_OUT_UART.c ****     {
  28              		.loc 1 248 0
  29              		.cfi_startproc
  30              		@ args = 0, pretend = 0, frame = 0
  31              		@ frame_needed = 0, uses_anonymous_args = 0
  32 0000 10B5     		push	{r4, lr}
  33              		.cfi_def_cfa_offset 8
  34              		.cfi_offset 4, -8
  35              		.cfi_offset 14, -4
 249:Generated_Source\PSoC4/UART_OUT_UART.c ****         /* Configure UART interface */
 250:Generated_Source\PSoC4/UART_OUT_UART.c ****         UART_OUT_CTRL_REG = UART_OUT_UART_DEFAULT_CTRL;
ARM GAS  C:\Users\johnn\AppData\Local\Temp\ccsZU3kn.s 			page 6


  36              		.loc 1 250 0
  37 0002 1B4A     		ldr	r2, .L2
  38 0004 1B4B     		ldr	r3, .L2+4
  39 0006 1A60     		str	r2, [r3]
 251:Generated_Source\PSoC4/UART_OUT_UART.c **** 
 252:Generated_Source\PSoC4/UART_OUT_UART.c ****         /* Configure sub-mode: UART, SmartCard or IrDA */
 253:Generated_Source\PSoC4/UART_OUT_UART.c ****         UART_OUT_UART_CTRL_REG = UART_OUT_UART_DEFAULT_UART_CTRL;
  40              		.loc 1 253 0
  41 0008 0024     		movs	r4, #0
  42 000a 1B4B     		ldr	r3, .L2+8
  43 000c 1C60     		str	r4, [r3]
 254:Generated_Source\PSoC4/UART_OUT_UART.c **** 
 255:Generated_Source\PSoC4/UART_OUT_UART.c ****         /* Configure RX direction */
 256:Generated_Source\PSoC4/UART_OUT_UART.c ****         UART_OUT_UART_RX_CTRL_REG = UART_OUT_UART_DEFAULT_UART_RX_CTRL;
  44              		.loc 1 256 0
  45 000e 1B4A     		ldr	r2, .L2+12
  46 0010 1B4B     		ldr	r3, .L2+16
  47 0012 1A60     		str	r2, [r3]
 257:Generated_Source\PSoC4/UART_OUT_UART.c ****         UART_OUT_RX_CTRL_REG      = UART_OUT_UART_DEFAULT_RX_CTRL;
  48              		.loc 1 257 0
  49 0014 0723     		movs	r3, #7
  50 0016 1B4A     		ldr	r2, .L2+20
  51 0018 1360     		str	r3, [r2]
 258:Generated_Source\PSoC4/UART_OUT_UART.c ****         UART_OUT_RX_FIFO_CTRL_REG = UART_OUT_UART_DEFAULT_RX_FIFO_CTRL;
  52              		.loc 1 258 0
  53 001a 1B4A     		ldr	r2, .L2+24
  54 001c 1360     		str	r3, [r2]
 259:Generated_Source\PSoC4/UART_OUT_UART.c ****         UART_OUT_RX_MATCH_REG     = UART_OUT_UART_DEFAULT_RX_MATCH_REG;
  55              		.loc 1 259 0
  56 001e 1B4B     		ldr	r3, .L2+28
  57 0020 1C60     		str	r4, [r3]
 260:Generated_Source\PSoC4/UART_OUT_UART.c **** 
 261:Generated_Source\PSoC4/UART_OUT_UART.c ****         /* Configure TX direction */
 262:Generated_Source\PSoC4/UART_OUT_UART.c ****         UART_OUT_UART_TX_CTRL_REG = UART_OUT_UART_DEFAULT_UART_TX_CTRL;
  58              		.loc 1 262 0
  59 0022 0122     		movs	r2, #1
  60 0024 1A4B     		ldr	r3, .L2+32
  61 0026 1A60     		str	r2, [r3]
 263:Generated_Source\PSoC4/UART_OUT_UART.c ****         UART_OUT_TX_CTRL_REG      = UART_OUT_UART_DEFAULT_TX_CTRL;
  62              		.loc 1 263 0
  63 0028 1A4A     		ldr	r2, .L2+36
  64 002a 1B4B     		ldr	r3, .L2+40
  65 002c 1A60     		str	r2, [r3]
 264:Generated_Source\PSoC4/UART_OUT_UART.c ****         UART_OUT_TX_FIFO_CTRL_REG = UART_OUT_UART_DEFAULT_TX_FIFO_CTRL;
  66              		.loc 1 264 0
  67 002e 1B4B     		ldr	r3, .L2+44
  68 0030 1C60     		str	r4, [r3]
 265:Generated_Source\PSoC4/UART_OUT_UART.c **** 
 266:Generated_Source\PSoC4/UART_OUT_UART.c ****     #if !(UART_OUT_CY_SCBIP_V0 || UART_OUT_CY_SCBIP_V1)
 267:Generated_Source\PSoC4/UART_OUT_UART.c ****         UART_OUT_UART_FLOW_CTRL_REG = UART_OUT_UART_DEFAULT_FLOW_CTRL;
  69              		.loc 1 267 0
  70 0032 0422     		movs	r2, #4
  71 0034 1A4B     		ldr	r3, .L2+48
  72 0036 1A60     		str	r2, [r3]
 268:Generated_Source\PSoC4/UART_OUT_UART.c ****     #endif /* !(UART_OUT_CY_SCBIP_V0 || UART_OUT_CY_SCBIP_V1) */
 269:Generated_Source\PSoC4/UART_OUT_UART.c **** 
 270:Generated_Source\PSoC4/UART_OUT_UART.c ****         /* Configure interrupt with UART handler but do not enable it */
ARM GAS  C:\Users\johnn\AppData\Local\Temp\ccsZU3kn.s 			page 7


 271:Generated_Source\PSoC4/UART_OUT_UART.c ****     #if(UART_OUT_SCB_IRQ_INTERNAL)
 272:Generated_Source\PSoC4/UART_OUT_UART.c ****         CyIntDisable    (UART_OUT_ISR_NUMBER);
  73              		.loc 1 272 0
  74 0038 0A20     		movs	r0, #10
  75 003a FFF7FEFF 		bl	CyIntDisable
  76              	.LVL0:
 273:Generated_Source\PSoC4/UART_OUT_UART.c ****         CyIntSetPriority(UART_OUT_ISR_NUMBER, UART_OUT_ISR_PRIORITY);
  77              		.loc 1 273 0
  78 003e 0321     		movs	r1, #3
  79 0040 0A20     		movs	r0, #10
  80 0042 FFF7FEFF 		bl	CyIntSetPriority
  81              	.LVL1:
 274:Generated_Source\PSoC4/UART_OUT_UART.c ****         (void) CyIntSetVector(UART_OUT_ISR_NUMBER, &UART_OUT_SPI_UART_ISR);
  82              		.loc 1 274 0
  83 0046 1749     		ldr	r1, .L2+52
  84 0048 0A20     		movs	r0, #10
  85 004a FFF7FEFF 		bl	CyIntSetVector
  86              	.LVL2:
 275:Generated_Source\PSoC4/UART_OUT_UART.c ****     #endif /* (UART_OUT_SCB_IRQ_INTERNAL) */
 276:Generated_Source\PSoC4/UART_OUT_UART.c **** 
 277:Generated_Source\PSoC4/UART_OUT_UART.c ****         /* Configure WAKE interrupt */
 278:Generated_Source\PSoC4/UART_OUT_UART.c ****     #if(UART_OUT_UART_RX_WAKEUP_IRQ)
 279:Generated_Source\PSoC4/UART_OUT_UART.c ****         CyIntDisable    (UART_OUT_RX_WAKE_ISR_NUMBER);
 280:Generated_Source\PSoC4/UART_OUT_UART.c ****         CyIntSetPriority(UART_OUT_RX_WAKE_ISR_NUMBER, UART_OUT_RX_WAKE_ISR_PRIORITY);
 281:Generated_Source\PSoC4/UART_OUT_UART.c ****         (void) CyIntSetVector(UART_OUT_RX_WAKE_ISR_NUMBER, &UART_OUT_UART_WAKEUP_ISR);
 282:Generated_Source\PSoC4/UART_OUT_UART.c ****     #endif /* (UART_OUT_UART_RX_WAKEUP_IRQ) */
 283:Generated_Source\PSoC4/UART_OUT_UART.c **** 
 284:Generated_Source\PSoC4/UART_OUT_UART.c ****         /* Configure interrupt sources */
 285:Generated_Source\PSoC4/UART_OUT_UART.c ****         UART_OUT_INTR_I2C_EC_MASK_REG = UART_OUT_UART_DEFAULT_INTR_I2C_EC_MASK;
  87              		.loc 1 285 0
  88 004e 164B     		ldr	r3, .L2+56
  89 0050 1C60     		str	r4, [r3]
 286:Generated_Source\PSoC4/UART_OUT_UART.c ****         UART_OUT_INTR_SPI_EC_MASK_REG = UART_OUT_UART_DEFAULT_INTR_SPI_EC_MASK;
  90              		.loc 1 286 0
  91 0052 164B     		ldr	r3, .L2+60
  92 0054 1C60     		str	r4, [r3]
 287:Generated_Source\PSoC4/UART_OUT_UART.c ****         UART_OUT_INTR_SLAVE_MASK_REG  = UART_OUT_UART_DEFAULT_INTR_SLAVE_MASK;
  93              		.loc 1 287 0
  94 0056 164B     		ldr	r3, .L2+64
  95 0058 1C60     		str	r4, [r3]
 288:Generated_Source\PSoC4/UART_OUT_UART.c ****         UART_OUT_INTR_MASTER_MASK_REG = UART_OUT_UART_DEFAULT_INTR_MASTER_MASK;
  96              		.loc 1 288 0
  97 005a 164B     		ldr	r3, .L2+68
  98 005c 1C60     		str	r4, [r3]
 289:Generated_Source\PSoC4/UART_OUT_UART.c ****         UART_OUT_INTR_RX_MASK_REG     = UART_OUT_UART_DEFAULT_INTR_RX_MASK;
  99              		.loc 1 289 0
 100 005e 164B     		ldr	r3, .L2+72
 101 0060 1C60     		str	r4, [r3]
 290:Generated_Source\PSoC4/UART_OUT_UART.c ****         UART_OUT_INTR_TX_MASK_REG     = UART_OUT_UART_DEFAULT_INTR_TX_MASK;
 102              		.loc 1 290 0
 103 0062 164B     		ldr	r3, .L2+76
 104 0064 1C60     		str	r4, [r3]
 291:Generated_Source\PSoC4/UART_OUT_UART.c **** 
 292:Generated_Source\PSoC4/UART_OUT_UART.c ****         /* Configure TX interrupt sources to restore. */
 293:Generated_Source\PSoC4/UART_OUT_UART.c ****         UART_OUT_IntrTxMask = LO16(UART_OUT_INTR_TX_MASK_REG);
 105              		.loc 1 293 0
 106 0066 1A68     		ldr	r2, [r3]
ARM GAS  C:\Users\johnn\AppData\Local\Temp\ccsZU3kn.s 			page 8


 107 0068 154B     		ldr	r3, .L2+80
 108 006a 1A80     		strh	r2, [r3]
 294:Generated_Source\PSoC4/UART_OUT_UART.c **** 
 295:Generated_Source\PSoC4/UART_OUT_UART.c ****     #if(UART_OUT_INTERNAL_RX_SW_BUFFER_CONST)
 296:Generated_Source\PSoC4/UART_OUT_UART.c ****         UART_OUT_rxBufferHead     = 0u;
 297:Generated_Source\PSoC4/UART_OUT_UART.c ****         UART_OUT_rxBufferTail     = 0u;
 298:Generated_Source\PSoC4/UART_OUT_UART.c ****         UART_OUT_rxBufferOverflow = 0u;
 299:Generated_Source\PSoC4/UART_OUT_UART.c ****     #endif /* (UART_OUT_INTERNAL_RX_SW_BUFFER_CONST) */
 300:Generated_Source\PSoC4/UART_OUT_UART.c **** 
 301:Generated_Source\PSoC4/UART_OUT_UART.c ****     #if(UART_OUT_INTERNAL_TX_SW_BUFFER_CONST)
 302:Generated_Source\PSoC4/UART_OUT_UART.c ****         UART_OUT_txBufferHead = 0u;
 303:Generated_Source\PSoC4/UART_OUT_UART.c ****         UART_OUT_txBufferTail = 0u;
 304:Generated_Source\PSoC4/UART_OUT_UART.c ****     #endif /* (UART_OUT_INTERNAL_TX_SW_BUFFER_CONST) */
 305:Generated_Source\PSoC4/UART_OUT_UART.c ****     }
 109              		.loc 1 305 0
 110              		@ sp needed
 111 006c 10BD     		pop	{r4, pc}
 112              	.L3:
 113 006e C046     		.align	2
 114              	.L2:
 115 0070 0B000002 		.word	33554443
 116 0074 00002540 		.word	1076166656
 117 0078 40002540 		.word	1076166720
 118 007c 01000A00 		.word	655361
 119 0080 48002540 		.word	1076166728
 120 0084 00032540 		.word	1076167424
 121 0088 04032540 		.word	1076167428
 122 008c 10032540 		.word	1076167440
 123 0090 44002540 		.word	1076166724
 124 0094 07000080 		.word	-2147483641
 125 0098 00022540 		.word	1076167168
 126 009c 04022540 		.word	1076167172
 127 00a0 50002540 		.word	1076166736
 128 00a4 00000000 		.word	UART_OUT_SPI_UART_ISR
 129 00a8 880E2540 		.word	1076170376
 130 00ac C80E2540 		.word	1076170440
 131 00b0 480F2540 		.word	1076170568
 132 00b4 080F2540 		.word	1076170504
 133 00b8 C80F2540 		.word	1076170696
 134 00bc 880F2540 		.word	1076170632
 135 00c0 00000000 		.word	UART_OUT_IntrTxMask
 136              		.cfi_endproc
 137              	.LFE2:
 138              		.size	UART_OUT_UartInit, .-UART_OUT_UartInit
 139              		.section	.text.UART_OUT_UartPostEnable,"ax",%progbits
 140              		.align	2
 141              		.global	UART_OUT_UartPostEnable
 142              		.code	16
 143              		.thumb_func
 144              		.type	UART_OUT_UartPostEnable, %function
 145              	UART_OUT_UartPostEnable:
 146              	.LFB3:
 306:Generated_Source\PSoC4/UART_OUT_UART.c **** #endif /* (UART_OUT_SCB_MODE_UNCONFIG_CONST_CFG) */
 307:Generated_Source\PSoC4/UART_OUT_UART.c **** 
 308:Generated_Source\PSoC4/UART_OUT_UART.c **** 
 309:Generated_Source\PSoC4/UART_OUT_UART.c **** /*******************************************************************************
 310:Generated_Source\PSoC4/UART_OUT_UART.c **** * Function Name: UART_OUT_UartPostEnable
ARM GAS  C:\Users\johnn\AppData\Local\Temp\ccsZU3kn.s 			page 9


 311:Generated_Source\PSoC4/UART_OUT_UART.c **** ****************************************************************************//**
 312:Generated_Source\PSoC4/UART_OUT_UART.c **** *
 313:Generated_Source\PSoC4/UART_OUT_UART.c **** *  Restores HSIOM settings for the UART output pins (TX and/or RTS) to be
 314:Generated_Source\PSoC4/UART_OUT_UART.c **** *  controlled by the SCB UART.
 315:Generated_Source\PSoC4/UART_OUT_UART.c **** *
 316:Generated_Source\PSoC4/UART_OUT_UART.c **** *******************************************************************************/
 317:Generated_Source\PSoC4/UART_OUT_UART.c **** void UART_OUT_UartPostEnable(void)
 318:Generated_Source\PSoC4/UART_OUT_UART.c **** {
 147              		.loc 1 318 0
 148              		.cfi_startproc
 149              		@ args = 0, pretend = 0, frame = 0
 150              		@ frame_needed = 0, uses_anonymous_args = 0
 151              		@ link register save eliminated.
 319:Generated_Source\PSoC4/UART_OUT_UART.c **** #if (UART_OUT_SCB_MODE_UNCONFIG_CONST_CFG)
 320:Generated_Source\PSoC4/UART_OUT_UART.c ****     #if (UART_OUT_TX_SCL_MISO_PIN)
 321:Generated_Source\PSoC4/UART_OUT_UART.c ****         if (UART_OUT_CHECK_TX_SCL_MISO_PIN_USED)
 322:Generated_Source\PSoC4/UART_OUT_UART.c ****         {
 323:Generated_Source\PSoC4/UART_OUT_UART.c ****             /* Set SCB UART to drive the output pin */
 324:Generated_Source\PSoC4/UART_OUT_UART.c ****             UART_OUT_SET_HSIOM_SEL(UART_OUT_TX_SCL_MISO_HSIOM_REG, UART_OUT_TX_SCL_MISO_HSIOM_MASK,
 325:Generated_Source\PSoC4/UART_OUT_UART.c ****                                            UART_OUT_TX_SCL_MISO_HSIOM_POS, UART_OUT_TX_SCL_MISO_HSI
 326:Generated_Source\PSoC4/UART_OUT_UART.c ****         }
 327:Generated_Source\PSoC4/UART_OUT_UART.c ****     #endif /* (UART_OUT_TX_SCL_MISO_PIN_PIN) */
 328:Generated_Source\PSoC4/UART_OUT_UART.c **** 
 329:Generated_Source\PSoC4/UART_OUT_UART.c ****     #if !(UART_OUT_CY_SCBIP_V0 || UART_OUT_CY_SCBIP_V1)
 330:Generated_Source\PSoC4/UART_OUT_UART.c ****         #if (UART_OUT_RTS_SS0_PIN)
 331:Generated_Source\PSoC4/UART_OUT_UART.c ****             if (UART_OUT_CHECK_RTS_SS0_PIN_USED)
 332:Generated_Source\PSoC4/UART_OUT_UART.c ****             {
 333:Generated_Source\PSoC4/UART_OUT_UART.c ****                 /* Set SCB UART to drive the output pin */
 334:Generated_Source\PSoC4/UART_OUT_UART.c ****                 UART_OUT_SET_HSIOM_SEL(UART_OUT_RTS_SS0_HSIOM_REG, UART_OUT_RTS_SS0_HSIOM_MASK,
 335:Generated_Source\PSoC4/UART_OUT_UART.c ****                                                UART_OUT_RTS_SS0_HSIOM_POS, UART_OUT_RTS_SS0_HSIOM_S
 336:Generated_Source\PSoC4/UART_OUT_UART.c ****             }
 337:Generated_Source\PSoC4/UART_OUT_UART.c ****         #endif /* (UART_OUT_RTS_SS0_PIN) */
 338:Generated_Source\PSoC4/UART_OUT_UART.c ****     #endif /* !(UART_OUT_CY_SCBIP_V0 || UART_OUT_CY_SCBIP_V1) */
 339:Generated_Source\PSoC4/UART_OUT_UART.c **** 
 340:Generated_Source\PSoC4/UART_OUT_UART.c **** #else
 341:Generated_Source\PSoC4/UART_OUT_UART.c ****     #if (UART_OUT_UART_TX_PIN)
 342:Generated_Source\PSoC4/UART_OUT_UART.c ****          /* Set SCB UART to drive the output pin */
 343:Generated_Source\PSoC4/UART_OUT_UART.c ****         UART_OUT_SET_HSIOM_SEL(UART_OUT_TX_HSIOM_REG, UART_OUT_TX_HSIOM_MASK,
 152              		.loc 1 343 0
 153 0000 0549     		ldr	r1, .L5
 154 0002 0B68     		ldr	r3, [r1]
 155 0004 F022     		movs	r2, #240
 156 0006 9343     		bics	r3, r2
 157 0008 603A     		subs	r2, r2, #96
 158 000a 1343     		orrs	r3, r2
 159 000c 0B60     		str	r3, [r1]
 344:Generated_Source\PSoC4/UART_OUT_UART.c ****                                        UART_OUT_TX_HSIOM_POS, UART_OUT_TX_HSIOM_SEL_UART);
 345:Generated_Source\PSoC4/UART_OUT_UART.c ****     #endif /* (UART_OUT_UART_TX_PIN) */
 346:Generated_Source\PSoC4/UART_OUT_UART.c **** 
 347:Generated_Source\PSoC4/UART_OUT_UART.c ****     #if (UART_OUT_UART_RTS_PIN)
 348:Generated_Source\PSoC4/UART_OUT_UART.c ****         /* Set SCB UART to drive the output pin */
 349:Generated_Source\PSoC4/UART_OUT_UART.c ****         UART_OUT_SET_HSIOM_SEL(UART_OUT_RTS_HSIOM_REG, UART_OUT_RTS_HSIOM_MASK,
 350:Generated_Source\PSoC4/UART_OUT_UART.c ****                                        UART_OUT_RTS_HSIOM_POS, UART_OUT_RTS_HSIOM_SEL_UART);
 351:Generated_Source\PSoC4/UART_OUT_UART.c ****     #endif /* (UART_OUT_UART_RTS_PIN) */
 352:Generated_Source\PSoC4/UART_OUT_UART.c **** #endif /* (UART_OUT_SCB_MODE_UNCONFIG_CONST_CFG) */
 353:Generated_Source\PSoC4/UART_OUT_UART.c **** 
 354:Generated_Source\PSoC4/UART_OUT_UART.c ****     /* Restore TX interrupt sources. */
ARM GAS  C:\Users\johnn\AppData\Local\Temp\ccsZU3kn.s 			page 10


 355:Generated_Source\PSoC4/UART_OUT_UART.c ****     UART_OUT_SetTxInterruptMode(UART_OUT_IntrTxMask);
 160              		.loc 1 355 0
 161 000e 034B     		ldr	r3, .L5+4
 162 0010 1A88     		ldrh	r2, [r3]
 163 0012 034B     		ldr	r3, .L5+8
 164 0014 1A60     		str	r2, [r3]
 356:Generated_Source\PSoC4/UART_OUT_UART.c **** }
 165              		.loc 1 356 0
 166              		@ sp needed
 167 0016 7047     		bx	lr
 168              	.L6:
 169              		.align	2
 170              	.L5:
 171 0018 00000240 		.word	1073872896
 172 001c 00000000 		.word	UART_OUT_IntrTxMask
 173 0020 880F2540 		.word	1076170632
 174              		.cfi_endproc
 175              	.LFE3:
 176              		.size	UART_OUT_UartPostEnable, .-UART_OUT_UartPostEnable
 177              		.section	.text.UART_OUT_UartStop,"ax",%progbits
 178              		.align	2
 179              		.global	UART_OUT_UartStop
 180              		.code	16
 181              		.thumb_func
 182              		.type	UART_OUT_UartStop, %function
 183              	UART_OUT_UartStop:
 184              	.LFB4:
 357:Generated_Source\PSoC4/UART_OUT_UART.c **** 
 358:Generated_Source\PSoC4/UART_OUT_UART.c **** 
 359:Generated_Source\PSoC4/UART_OUT_UART.c **** /*******************************************************************************
 360:Generated_Source\PSoC4/UART_OUT_UART.c **** * Function Name: UART_OUT_UartStop
 361:Generated_Source\PSoC4/UART_OUT_UART.c **** ****************************************************************************//**
 362:Generated_Source\PSoC4/UART_OUT_UART.c **** *
 363:Generated_Source\PSoC4/UART_OUT_UART.c **** *  Changes the HSIOM settings for the UART output pins (TX and/or RTS) to keep
 364:Generated_Source\PSoC4/UART_OUT_UART.c **** *  them inactive after the block is disabled. The output pins are controlled by
 365:Generated_Source\PSoC4/UART_OUT_UART.c **** *  the GPIO data register. Also, the function disables the skip start feature
 366:Generated_Source\PSoC4/UART_OUT_UART.c **** *  to not cause it to trigger after the component is enabled.
 367:Generated_Source\PSoC4/UART_OUT_UART.c **** *
 368:Generated_Source\PSoC4/UART_OUT_UART.c **** *******************************************************************************/
 369:Generated_Source\PSoC4/UART_OUT_UART.c **** void UART_OUT_UartStop(void)
 370:Generated_Source\PSoC4/UART_OUT_UART.c **** {
 185              		.loc 1 370 0
 186              		.cfi_startproc
 187              		@ args = 0, pretend = 0, frame = 0
 188              		@ frame_needed = 0, uses_anonymous_args = 0
 189              		@ link register save eliminated.
 371:Generated_Source\PSoC4/UART_OUT_UART.c **** #if(UART_OUT_SCB_MODE_UNCONFIG_CONST_CFG)
 372:Generated_Source\PSoC4/UART_OUT_UART.c ****     #if (UART_OUT_TX_SCL_MISO_PIN)
 373:Generated_Source\PSoC4/UART_OUT_UART.c ****         if (UART_OUT_CHECK_TX_SCL_MISO_PIN_USED)
 374:Generated_Source\PSoC4/UART_OUT_UART.c ****         {
 375:Generated_Source\PSoC4/UART_OUT_UART.c ****             /* Set GPIO to drive output pin */
 376:Generated_Source\PSoC4/UART_OUT_UART.c ****             UART_OUT_SET_HSIOM_SEL(UART_OUT_TX_SCL_MISO_HSIOM_REG, UART_OUT_TX_SCL_MISO_HSIOM_MASK,
 377:Generated_Source\PSoC4/UART_OUT_UART.c ****                                            UART_OUT_TX_SCL_MISO_HSIOM_POS, UART_OUT_TX_SCL_MISO_HSI
 378:Generated_Source\PSoC4/UART_OUT_UART.c ****         }
 379:Generated_Source\PSoC4/UART_OUT_UART.c ****     #endif /* (UART_OUT_TX_SCL_MISO_PIN_PIN) */
 380:Generated_Source\PSoC4/UART_OUT_UART.c **** 
 381:Generated_Source\PSoC4/UART_OUT_UART.c ****     #if !(UART_OUT_CY_SCBIP_V0 || UART_OUT_CY_SCBIP_V1)
ARM GAS  C:\Users\johnn\AppData\Local\Temp\ccsZU3kn.s 			page 11


 382:Generated_Source\PSoC4/UART_OUT_UART.c ****         #if (UART_OUT_RTS_SS0_PIN)
 383:Generated_Source\PSoC4/UART_OUT_UART.c ****             if (UART_OUT_CHECK_RTS_SS0_PIN_USED)
 384:Generated_Source\PSoC4/UART_OUT_UART.c ****             {
 385:Generated_Source\PSoC4/UART_OUT_UART.c ****                 /* Set output pin state after block is disabled */
 386:Generated_Source\PSoC4/UART_OUT_UART.c ****                 UART_OUT_uart_rts_spi_ss0_Write(UART_OUT_GET_UART_RTS_INACTIVE);
 387:Generated_Source\PSoC4/UART_OUT_UART.c **** 
 388:Generated_Source\PSoC4/UART_OUT_UART.c ****                 /* Set GPIO to drive output pin */
 389:Generated_Source\PSoC4/UART_OUT_UART.c ****                 UART_OUT_SET_HSIOM_SEL(UART_OUT_RTS_SS0_HSIOM_REG, UART_OUT_RTS_SS0_HSIOM_MASK,
 390:Generated_Source\PSoC4/UART_OUT_UART.c ****                                                UART_OUT_RTS_SS0_HSIOM_POS, UART_OUT_RTS_SS0_HSIOM_S
 391:Generated_Source\PSoC4/UART_OUT_UART.c ****             }
 392:Generated_Source\PSoC4/UART_OUT_UART.c ****         #endif /* (UART_OUT_RTS_SS0_PIN) */
 393:Generated_Source\PSoC4/UART_OUT_UART.c ****     #endif /* !(UART_OUT_CY_SCBIP_V0 || UART_OUT_CY_SCBIP_V1) */
 394:Generated_Source\PSoC4/UART_OUT_UART.c **** 
 395:Generated_Source\PSoC4/UART_OUT_UART.c **** #else
 396:Generated_Source\PSoC4/UART_OUT_UART.c ****     #if (UART_OUT_UART_TX_PIN)
 397:Generated_Source\PSoC4/UART_OUT_UART.c ****         /* Set GPIO to drive output pin */
 398:Generated_Source\PSoC4/UART_OUT_UART.c ****         UART_OUT_SET_HSIOM_SEL(UART_OUT_TX_HSIOM_REG, UART_OUT_TX_HSIOM_MASK,
 190              		.loc 1 398 0
 191 0000 064A     		ldr	r2, .L8
 192 0002 1368     		ldr	r3, [r2]
 193 0004 F021     		movs	r1, #240
 194 0006 8B43     		bics	r3, r1
 195 0008 1360     		str	r3, [r2]
 399:Generated_Source\PSoC4/UART_OUT_UART.c ****                                        UART_OUT_TX_HSIOM_POS, UART_OUT_TX_HSIOM_SEL_GPIO);
 400:Generated_Source\PSoC4/UART_OUT_UART.c ****     #endif /* (UART_OUT_UART_TX_PIN) */
 401:Generated_Source\PSoC4/UART_OUT_UART.c **** 
 402:Generated_Source\PSoC4/UART_OUT_UART.c ****     #if (UART_OUT_UART_RTS_PIN)
 403:Generated_Source\PSoC4/UART_OUT_UART.c ****         /* Set output pin state after block is disabled */
 404:Generated_Source\PSoC4/UART_OUT_UART.c ****         UART_OUT_rts_Write(UART_OUT_GET_UART_RTS_INACTIVE);
 405:Generated_Source\PSoC4/UART_OUT_UART.c **** 
 406:Generated_Source\PSoC4/UART_OUT_UART.c ****         /* Set GPIO to drive output pin */
 407:Generated_Source\PSoC4/UART_OUT_UART.c ****         UART_OUT_SET_HSIOM_SEL(UART_OUT_RTS_HSIOM_REG, UART_OUT_RTS_HSIOM_MASK,
 408:Generated_Source\PSoC4/UART_OUT_UART.c ****                                        UART_OUT_RTS_HSIOM_POS, UART_OUT_RTS_HSIOM_SEL_GPIO);
 409:Generated_Source\PSoC4/UART_OUT_UART.c ****     #endif /* (UART_OUT_UART_RTS_PIN) */
 410:Generated_Source\PSoC4/UART_OUT_UART.c **** 
 411:Generated_Source\PSoC4/UART_OUT_UART.c **** #endif /* (UART_OUT_SCB_MODE_UNCONFIG_CONST_CFG) */
 412:Generated_Source\PSoC4/UART_OUT_UART.c **** 
 413:Generated_Source\PSoC4/UART_OUT_UART.c **** #if (UART_OUT_UART_WAKE_ENABLE_CONST)
 414:Generated_Source\PSoC4/UART_OUT_UART.c ****     /* Disable skip start feature used for wakeup */
 415:Generated_Source\PSoC4/UART_OUT_UART.c ****     UART_OUT_UART_RX_CTRL_REG &= (uint32) ~UART_OUT_UART_RX_CTRL_SKIP_START;
 416:Generated_Source\PSoC4/UART_OUT_UART.c **** #endif /* (UART_OUT_UART_WAKE_ENABLE_CONST) */
 417:Generated_Source\PSoC4/UART_OUT_UART.c **** 
 418:Generated_Source\PSoC4/UART_OUT_UART.c ****     /* Store TX interrupt sources (exclude level triggered). */
 419:Generated_Source\PSoC4/UART_OUT_UART.c ****     UART_OUT_IntrTxMask = LO16(UART_OUT_GetTxInterruptMode() & UART_OUT_INTR_UART_TX_RESTORE);
 196              		.loc 1 419 0
 197 000a 054B     		ldr	r3, .L8+4
 198 000c 1A68     		ldr	r2, [r3]
 199 000e E423     		movs	r3, #228
 200 0010 DB00     		lsls	r3, r3, #3
 201 0012 1340     		ands	r3, r2
 202 0014 034A     		ldr	r2, .L8+8
 203 0016 1380     		strh	r3, [r2]
 420:Generated_Source\PSoC4/UART_OUT_UART.c **** }
 204              		.loc 1 420 0
 205              		@ sp needed
 206 0018 7047     		bx	lr
 207              	.L9:
ARM GAS  C:\Users\johnn\AppData\Local\Temp\ccsZU3kn.s 			page 12


 208 001a C046     		.align	2
 209              	.L8:
 210 001c 00000240 		.word	1073872896
 211 0020 880F2540 		.word	1076170632
 212 0024 00000000 		.word	UART_OUT_IntrTxMask
 213              		.cfi_endproc
 214              	.LFE4:
 215              		.size	UART_OUT_UartStop, .-UART_OUT_UartStop
 216              		.section	.text.UART_OUT_UartSetRxAddress,"ax",%progbits
 217              		.align	2
 218              		.global	UART_OUT_UartSetRxAddress
 219              		.code	16
 220              		.thumb_func
 221              		.type	UART_OUT_UartSetRxAddress, %function
 222              	UART_OUT_UartSetRxAddress:
 223              	.LFB5:
 421:Generated_Source\PSoC4/UART_OUT_UART.c **** 
 422:Generated_Source\PSoC4/UART_OUT_UART.c **** 
 423:Generated_Source\PSoC4/UART_OUT_UART.c **** /*******************************************************************************
 424:Generated_Source\PSoC4/UART_OUT_UART.c **** * Function Name: UART_OUT_UartSetRxAddress
 425:Generated_Source\PSoC4/UART_OUT_UART.c **** ****************************************************************************//**
 426:Generated_Source\PSoC4/UART_OUT_UART.c **** *
 427:Generated_Source\PSoC4/UART_OUT_UART.c **** *  Sets the hardware detectable receiver address for the UART in the
 428:Generated_Source\PSoC4/UART_OUT_UART.c **** *  Multiprocessor mode.
 429:Generated_Source\PSoC4/UART_OUT_UART.c **** *
 430:Generated_Source\PSoC4/UART_OUT_UART.c **** *  \param address: Address for hardware address detection.
 431:Generated_Source\PSoC4/UART_OUT_UART.c **** *
 432:Generated_Source\PSoC4/UART_OUT_UART.c **** *******************************************************************************/
 433:Generated_Source\PSoC4/UART_OUT_UART.c **** void UART_OUT_UartSetRxAddress(uint32 address)
 434:Generated_Source\PSoC4/UART_OUT_UART.c **** {
 224              		.loc 1 434 0
 225              		.cfi_startproc
 226              		@ args = 0, pretend = 0, frame = 0
 227              		@ frame_needed = 0, uses_anonymous_args = 0
 228              		@ link register save eliminated.
 229              	.LVL3:
 435:Generated_Source\PSoC4/UART_OUT_UART.c ****      uint32 matchReg;
 436:Generated_Source\PSoC4/UART_OUT_UART.c **** 
 437:Generated_Source\PSoC4/UART_OUT_UART.c ****     matchReg = UART_OUT_RX_MATCH_REG;
 230              		.loc 1 437 0
 231 0000 034A     		ldr	r2, .L11
 232 0002 1368     		ldr	r3, [r2]
 233              	.LVL4:
 438:Generated_Source\PSoC4/UART_OUT_UART.c **** 
 439:Generated_Source\PSoC4/UART_OUT_UART.c ****     matchReg &= ((uint32) ~UART_OUT_RX_MATCH_ADDR_MASK); /* Clear address bits */
 234              		.loc 1 439 0
 235 0004 FF21     		movs	r1, #255
 236 0006 8B43     		bics	r3, r1
 237              	.LVL5:
 440:Generated_Source\PSoC4/UART_OUT_UART.c ****     matchReg |= ((uint32)  (address & UART_OUT_RX_MATCH_ADDR_MASK)); /* Set address  */
 238              		.loc 1 440 0
 239 0008 0840     		ands	r0, r1
 240              	.LVL6:
 241 000a 1843     		orrs	r0, r3
 242              	.LVL7:
 441:Generated_Source\PSoC4/UART_OUT_UART.c **** 
 442:Generated_Source\PSoC4/UART_OUT_UART.c ****     UART_OUT_RX_MATCH_REG = matchReg;
ARM GAS  C:\Users\johnn\AppData\Local\Temp\ccsZU3kn.s 			page 13


 243              		.loc 1 442 0
 244 000c 1060     		str	r0, [r2]
 443:Generated_Source\PSoC4/UART_OUT_UART.c **** }
 245              		.loc 1 443 0
 246              		@ sp needed
 247 000e 7047     		bx	lr
 248              	.L12:
 249              		.align	2
 250              	.L11:
 251 0010 10032540 		.word	1076167440
 252              		.cfi_endproc
 253              	.LFE5:
 254              		.size	UART_OUT_UartSetRxAddress, .-UART_OUT_UartSetRxAddress
 255              		.section	.text.UART_OUT_UartSetRxAddressMask,"ax",%progbits
 256              		.align	2
 257              		.global	UART_OUT_UartSetRxAddressMask
 258              		.code	16
 259              		.thumb_func
 260              		.type	UART_OUT_UartSetRxAddressMask, %function
 261              	UART_OUT_UartSetRxAddressMask:
 262              	.LFB6:
 444:Generated_Source\PSoC4/UART_OUT_UART.c **** 
 445:Generated_Source\PSoC4/UART_OUT_UART.c **** 
 446:Generated_Source\PSoC4/UART_OUT_UART.c **** /*******************************************************************************
 447:Generated_Source\PSoC4/UART_OUT_UART.c **** * Function Name: UART_OUT_UartSetRxAddressMask
 448:Generated_Source\PSoC4/UART_OUT_UART.c **** ****************************************************************************//**
 449:Generated_Source\PSoC4/UART_OUT_UART.c **** *
 450:Generated_Source\PSoC4/UART_OUT_UART.c **** *  Sets the hardware address mask for the UART in the Multiprocessor mode.
 451:Generated_Source\PSoC4/UART_OUT_UART.c **** *
 452:Generated_Source\PSoC4/UART_OUT_UART.c **** *  \param addressMask: Address mask.
 453:Generated_Source\PSoC4/UART_OUT_UART.c **** *   - Bit value 0 – excludes bit from address comparison.
 454:Generated_Source\PSoC4/UART_OUT_UART.c **** *   - Bit value 1 – the bit needs to match with the corresponding bit
 455:Generated_Source\PSoC4/UART_OUT_UART.c **** *     of the address.
 456:Generated_Source\PSoC4/UART_OUT_UART.c **** *
 457:Generated_Source\PSoC4/UART_OUT_UART.c **** *******************************************************************************/
 458:Generated_Source\PSoC4/UART_OUT_UART.c **** void UART_OUT_UartSetRxAddressMask(uint32 addressMask)
 459:Generated_Source\PSoC4/UART_OUT_UART.c **** {
 263              		.loc 1 459 0
 264              		.cfi_startproc
 265              		@ args = 0, pretend = 0, frame = 0
 266              		@ frame_needed = 0, uses_anonymous_args = 0
 267              		@ link register save eliminated.
 268              	.LVL8:
 460:Generated_Source\PSoC4/UART_OUT_UART.c ****     uint32 matchReg;
 461:Generated_Source\PSoC4/UART_OUT_UART.c **** 
 462:Generated_Source\PSoC4/UART_OUT_UART.c ****     matchReg = UART_OUT_RX_MATCH_REG;
 269              		.loc 1 462 0
 270 0000 034A     		ldr	r2, .L14
 271 0002 1168     		ldr	r1, [r2]
 272              	.LVL9:
 463:Generated_Source\PSoC4/UART_OUT_UART.c **** 
 464:Generated_Source\PSoC4/UART_OUT_UART.c ****     matchReg &= ((uint32) ~UART_OUT_RX_MATCH_MASK_MASK); /* Clear address mask bits */
 273              		.loc 1 464 0
 274 0004 034B     		ldr	r3, .L14+4
 275 0006 0B40     		ands	r3, r1
 276              	.LVL10:
 465:Generated_Source\PSoC4/UART_OUT_UART.c ****     matchReg |= ((uint32) (addressMask << UART_OUT_RX_MATCH_MASK_POS));
ARM GAS  C:\Users\johnn\AppData\Local\Temp\ccsZU3kn.s 			page 14


 277              		.loc 1 465 0
 278 0008 0004     		lsls	r0, r0, #16
 279              	.LVL11:
 280 000a 1843     		orrs	r0, r3
 281              	.LVL12:
 466:Generated_Source\PSoC4/UART_OUT_UART.c **** 
 467:Generated_Source\PSoC4/UART_OUT_UART.c ****     UART_OUT_RX_MATCH_REG = matchReg;
 282              		.loc 1 467 0
 283 000c 1060     		str	r0, [r2]
 468:Generated_Source\PSoC4/UART_OUT_UART.c **** }
 284              		.loc 1 468 0
 285              		@ sp needed
 286 000e 7047     		bx	lr
 287              	.L15:
 288              		.align	2
 289              	.L14:
 290 0010 10032540 		.word	1076167440
 291 0014 FFFF00FF 		.word	-16711681
 292              		.cfi_endproc
 293              	.LFE6:
 294              		.size	UART_OUT_UartSetRxAddressMask, .-UART_OUT_UartSetRxAddressMask
 295              		.section	.text.UART_OUT_UartPutString,"ax",%progbits
 296              		.align	2
 297              		.global	UART_OUT_UartPutString
 298              		.code	16
 299              		.thumb_func
 300              		.type	UART_OUT_UartPutString, %function
 301              	UART_OUT_UartPutString:
 302              	.LFB7:
 469:Generated_Source\PSoC4/UART_OUT_UART.c **** 
 470:Generated_Source\PSoC4/UART_OUT_UART.c **** 
 471:Generated_Source\PSoC4/UART_OUT_UART.c **** #if(UART_OUT_UART_RX_DIRECTION)
 472:Generated_Source\PSoC4/UART_OUT_UART.c ****     /*******************************************************************************
 473:Generated_Source\PSoC4/UART_OUT_UART.c ****     * Function Name: UART_OUT_UartGetChar
 474:Generated_Source\PSoC4/UART_OUT_UART.c ****     ****************************************************************************//**
 475:Generated_Source\PSoC4/UART_OUT_UART.c ****     *
 476:Generated_Source\PSoC4/UART_OUT_UART.c ****     *  Retrieves next data element from receive buffer.
 477:Generated_Source\PSoC4/UART_OUT_UART.c ****     *  This function is designed for ASCII characters and returns a char where
 478:Generated_Source\PSoC4/UART_OUT_UART.c ****     *  1 to 255 are valid characters and 0 indicates an error occurred or no data
 479:Generated_Source\PSoC4/UART_OUT_UART.c ****     *  is present.
 480:Generated_Source\PSoC4/UART_OUT_UART.c ****     *  - RX software buffer is disabled: Returns data element retrieved from RX
 481:Generated_Source\PSoC4/UART_OUT_UART.c ****     *    FIFO.
 482:Generated_Source\PSoC4/UART_OUT_UART.c ****     *  - RX software buffer is enabled: Returns data element from the software
 483:Generated_Source\PSoC4/UART_OUT_UART.c ****     *    receive buffer.
 484:Generated_Source\PSoC4/UART_OUT_UART.c ****     *
 485:Generated_Source\PSoC4/UART_OUT_UART.c ****     *  \return
 486:Generated_Source\PSoC4/UART_OUT_UART.c ****     *   Next data element from the receive buffer. ASCII character values from
 487:Generated_Source\PSoC4/UART_OUT_UART.c ****     *   1 to 255 are valid. A returned zero signifies an error condition or no
 488:Generated_Source\PSoC4/UART_OUT_UART.c ****     *   data available.
 489:Generated_Source\PSoC4/UART_OUT_UART.c ****     *
 490:Generated_Source\PSoC4/UART_OUT_UART.c ****     *  \sideeffect
 491:Generated_Source\PSoC4/UART_OUT_UART.c ****     *   The errors bits may not correspond with reading characters due to
 492:Generated_Source\PSoC4/UART_OUT_UART.c ****     *   RX FIFO and software buffer usage.
 493:Generated_Source\PSoC4/UART_OUT_UART.c ****     *   RX software buffer is enabled: The internal software buffer overflow
 494:Generated_Source\PSoC4/UART_OUT_UART.c ****     *   is not treated as an error condition.
 495:Generated_Source\PSoC4/UART_OUT_UART.c ****     *   Check UART_OUT_rxBufferOverflow to capture that error condition.
 496:Generated_Source\PSoC4/UART_OUT_UART.c ****     *
ARM GAS  C:\Users\johnn\AppData\Local\Temp\ccsZU3kn.s 			page 15


 497:Generated_Source\PSoC4/UART_OUT_UART.c ****     *******************************************************************************/
 498:Generated_Source\PSoC4/UART_OUT_UART.c ****     uint32 UART_OUT_UartGetChar(void)
 499:Generated_Source\PSoC4/UART_OUT_UART.c ****     {
 500:Generated_Source\PSoC4/UART_OUT_UART.c ****         uint32 rxData = 0u;
 501:Generated_Source\PSoC4/UART_OUT_UART.c **** 
 502:Generated_Source\PSoC4/UART_OUT_UART.c ****         /* Reads data only if there is data to read */
 503:Generated_Source\PSoC4/UART_OUT_UART.c ****         if (0u != UART_OUT_SpiUartGetRxBufferSize())
 504:Generated_Source\PSoC4/UART_OUT_UART.c ****         {
 505:Generated_Source\PSoC4/UART_OUT_UART.c ****             rxData = UART_OUT_SpiUartReadRxData();
 506:Generated_Source\PSoC4/UART_OUT_UART.c ****         }
 507:Generated_Source\PSoC4/UART_OUT_UART.c **** 
 508:Generated_Source\PSoC4/UART_OUT_UART.c ****         if (UART_OUT_CHECK_INTR_RX(UART_OUT_INTR_RX_ERR))
 509:Generated_Source\PSoC4/UART_OUT_UART.c ****         {
 510:Generated_Source\PSoC4/UART_OUT_UART.c ****             rxData = 0u; /* Error occurred: returns zero */
 511:Generated_Source\PSoC4/UART_OUT_UART.c ****             UART_OUT_ClearRxInterruptSource(UART_OUT_INTR_RX_ERR);
 512:Generated_Source\PSoC4/UART_OUT_UART.c ****         }
 513:Generated_Source\PSoC4/UART_OUT_UART.c **** 
 514:Generated_Source\PSoC4/UART_OUT_UART.c ****         return (rxData);
 515:Generated_Source\PSoC4/UART_OUT_UART.c ****     }
 516:Generated_Source\PSoC4/UART_OUT_UART.c **** 
 517:Generated_Source\PSoC4/UART_OUT_UART.c **** 
 518:Generated_Source\PSoC4/UART_OUT_UART.c ****     /*******************************************************************************
 519:Generated_Source\PSoC4/UART_OUT_UART.c ****     * Function Name: UART_OUT_UartGetByte
 520:Generated_Source\PSoC4/UART_OUT_UART.c ****     ****************************************************************************//**
 521:Generated_Source\PSoC4/UART_OUT_UART.c ****     *
 522:Generated_Source\PSoC4/UART_OUT_UART.c ****     *  Retrieves the next data element from the receive buffer, returns the
 523:Generated_Source\PSoC4/UART_OUT_UART.c ****     *  received byte and error condition.
 524:Generated_Source\PSoC4/UART_OUT_UART.c ****     *   - The RX software buffer is disabled: returns the data element retrieved
 525:Generated_Source\PSoC4/UART_OUT_UART.c ****     *     from the RX FIFO. Undefined data will be returned if the RX FIFO is
 526:Generated_Source\PSoC4/UART_OUT_UART.c ****     *     empty.
 527:Generated_Source\PSoC4/UART_OUT_UART.c ****     *   - The RX software buffer is enabled: returns data element from the
 528:Generated_Source\PSoC4/UART_OUT_UART.c ****     *     software receive buffer.
 529:Generated_Source\PSoC4/UART_OUT_UART.c ****     *
 530:Generated_Source\PSoC4/UART_OUT_UART.c ****     *  \return
 531:Generated_Source\PSoC4/UART_OUT_UART.c ****     *   Bits 7-0 contain the next data element from the receive buffer and
 532:Generated_Source\PSoC4/UART_OUT_UART.c ****     *   other bits contain the error condition.
 533:Generated_Source\PSoC4/UART_OUT_UART.c ****     *   - UART_OUT_UART_RX_OVERFLOW - Attempt to write to a full
 534:Generated_Source\PSoC4/UART_OUT_UART.c ****     *     receiver FIFO.
 535:Generated_Source\PSoC4/UART_OUT_UART.c ****     *   - UART_OUT_UART_RX_UNDERFLOW    Attempt to read from an empty
 536:Generated_Source\PSoC4/UART_OUT_UART.c ****     *     receiver FIFO.
 537:Generated_Source\PSoC4/UART_OUT_UART.c ****     *   - UART_OUT_UART_RX_FRAME_ERROR - UART framing error detected.
 538:Generated_Source\PSoC4/UART_OUT_UART.c ****     *   - UART_OUT_UART_RX_PARITY_ERROR - UART parity error detected.
 539:Generated_Source\PSoC4/UART_OUT_UART.c ****     *
 540:Generated_Source\PSoC4/UART_OUT_UART.c ****     *  \sideeffect
 541:Generated_Source\PSoC4/UART_OUT_UART.c ****     *   The errors bits may not correspond with reading characters due to
 542:Generated_Source\PSoC4/UART_OUT_UART.c ****     *   RX FIFO and software buffer usage.
 543:Generated_Source\PSoC4/UART_OUT_UART.c ****     *   RX software buffer is enabled: The internal software buffer overflow
 544:Generated_Source\PSoC4/UART_OUT_UART.c ****     *   is not treated as an error condition.
 545:Generated_Source\PSoC4/UART_OUT_UART.c ****     *   Check UART_OUT_rxBufferOverflow to capture that error condition.
 546:Generated_Source\PSoC4/UART_OUT_UART.c ****     *
 547:Generated_Source\PSoC4/UART_OUT_UART.c ****     *******************************************************************************/
 548:Generated_Source\PSoC4/UART_OUT_UART.c ****     uint32 UART_OUT_UartGetByte(void)
 549:Generated_Source\PSoC4/UART_OUT_UART.c ****     {
 550:Generated_Source\PSoC4/UART_OUT_UART.c ****         uint32 rxData;
 551:Generated_Source\PSoC4/UART_OUT_UART.c ****         uint32 tmpStatus;
 552:Generated_Source\PSoC4/UART_OUT_UART.c **** 
 553:Generated_Source\PSoC4/UART_OUT_UART.c ****         #if (UART_OUT_CHECK_RX_SW_BUFFER)
ARM GAS  C:\Users\johnn\AppData\Local\Temp\ccsZU3kn.s 			page 16


 554:Generated_Source\PSoC4/UART_OUT_UART.c ****         {
 555:Generated_Source\PSoC4/UART_OUT_UART.c ****             UART_OUT_DisableInt();
 556:Generated_Source\PSoC4/UART_OUT_UART.c ****         }
 557:Generated_Source\PSoC4/UART_OUT_UART.c ****         #endif
 558:Generated_Source\PSoC4/UART_OUT_UART.c **** 
 559:Generated_Source\PSoC4/UART_OUT_UART.c ****         if (0u != UART_OUT_SpiUartGetRxBufferSize())
 560:Generated_Source\PSoC4/UART_OUT_UART.c ****         {
 561:Generated_Source\PSoC4/UART_OUT_UART.c ****             /* Enables interrupt to receive more bytes: at least one byte is in
 562:Generated_Source\PSoC4/UART_OUT_UART.c ****             * buffer.
 563:Generated_Source\PSoC4/UART_OUT_UART.c ****             */
 564:Generated_Source\PSoC4/UART_OUT_UART.c ****             #if (UART_OUT_CHECK_RX_SW_BUFFER)
 565:Generated_Source\PSoC4/UART_OUT_UART.c ****             {
 566:Generated_Source\PSoC4/UART_OUT_UART.c ****                 UART_OUT_EnableInt();
 567:Generated_Source\PSoC4/UART_OUT_UART.c ****             }
 568:Generated_Source\PSoC4/UART_OUT_UART.c ****             #endif
 569:Generated_Source\PSoC4/UART_OUT_UART.c **** 
 570:Generated_Source\PSoC4/UART_OUT_UART.c ****             /* Get received byte */
 571:Generated_Source\PSoC4/UART_OUT_UART.c ****             rxData = UART_OUT_SpiUartReadRxData();
 572:Generated_Source\PSoC4/UART_OUT_UART.c ****         }
 573:Generated_Source\PSoC4/UART_OUT_UART.c ****         else
 574:Generated_Source\PSoC4/UART_OUT_UART.c ****         {
 575:Generated_Source\PSoC4/UART_OUT_UART.c ****             /* Reads a byte directly from RX FIFO: underflow is raised in the
 576:Generated_Source\PSoC4/UART_OUT_UART.c ****             * case of empty. Otherwise the first received byte will be read.
 577:Generated_Source\PSoC4/UART_OUT_UART.c ****             */
 578:Generated_Source\PSoC4/UART_OUT_UART.c ****             rxData = UART_OUT_RX_FIFO_RD_REG;
 579:Generated_Source\PSoC4/UART_OUT_UART.c **** 
 580:Generated_Source\PSoC4/UART_OUT_UART.c **** 
 581:Generated_Source\PSoC4/UART_OUT_UART.c ****             /* Enables interrupt to receive more bytes. */
 582:Generated_Source\PSoC4/UART_OUT_UART.c ****             #if (UART_OUT_CHECK_RX_SW_BUFFER)
 583:Generated_Source\PSoC4/UART_OUT_UART.c ****             {
 584:Generated_Source\PSoC4/UART_OUT_UART.c **** 
 585:Generated_Source\PSoC4/UART_OUT_UART.c ****                 /* The byte has been read from RX FIFO. Clear RX interrupt to
 586:Generated_Source\PSoC4/UART_OUT_UART.c ****                 * not involve interrupt handler when RX FIFO is empty.
 587:Generated_Source\PSoC4/UART_OUT_UART.c ****                 */
 588:Generated_Source\PSoC4/UART_OUT_UART.c ****                 UART_OUT_ClearRxInterruptSource(UART_OUT_INTR_RX_NOT_EMPTY);
 589:Generated_Source\PSoC4/UART_OUT_UART.c **** 
 590:Generated_Source\PSoC4/UART_OUT_UART.c ****                 UART_OUT_EnableInt();
 591:Generated_Source\PSoC4/UART_OUT_UART.c ****             }
 592:Generated_Source\PSoC4/UART_OUT_UART.c ****             #endif
 593:Generated_Source\PSoC4/UART_OUT_UART.c ****         }
 594:Generated_Source\PSoC4/UART_OUT_UART.c **** 
 595:Generated_Source\PSoC4/UART_OUT_UART.c ****         /* Get and clear RX error mask */
 596:Generated_Source\PSoC4/UART_OUT_UART.c ****         tmpStatus = (UART_OUT_GetRxInterruptSource() & UART_OUT_INTR_RX_ERR);
 597:Generated_Source\PSoC4/UART_OUT_UART.c ****         UART_OUT_ClearRxInterruptSource(UART_OUT_INTR_RX_ERR);
 598:Generated_Source\PSoC4/UART_OUT_UART.c **** 
 599:Generated_Source\PSoC4/UART_OUT_UART.c ****         /* Puts together data and error status:
 600:Generated_Source\PSoC4/UART_OUT_UART.c ****         * MP mode and accept address: 9th bit is set to notify mark.
 601:Generated_Source\PSoC4/UART_OUT_UART.c ****         */
 602:Generated_Source\PSoC4/UART_OUT_UART.c ****         rxData |= ((uint32) (tmpStatus << 8u));
 603:Generated_Source\PSoC4/UART_OUT_UART.c **** 
 604:Generated_Source\PSoC4/UART_OUT_UART.c ****         return (rxData);
 605:Generated_Source\PSoC4/UART_OUT_UART.c ****     }
 606:Generated_Source\PSoC4/UART_OUT_UART.c **** 
 607:Generated_Source\PSoC4/UART_OUT_UART.c **** 
 608:Generated_Source\PSoC4/UART_OUT_UART.c ****     #if !(UART_OUT_CY_SCBIP_V0 || UART_OUT_CY_SCBIP_V1)
 609:Generated_Source\PSoC4/UART_OUT_UART.c ****         /*******************************************************************************
 610:Generated_Source\PSoC4/UART_OUT_UART.c ****         * Function Name: UART_OUT_UartSetRtsPolarity
ARM GAS  C:\Users\johnn\AppData\Local\Temp\ccsZU3kn.s 			page 17


 611:Generated_Source\PSoC4/UART_OUT_UART.c ****         ****************************************************************************//**
 612:Generated_Source\PSoC4/UART_OUT_UART.c ****         *
 613:Generated_Source\PSoC4/UART_OUT_UART.c ****         *  Sets active polarity of RTS output signal.
 614:Generated_Source\PSoC4/UART_OUT_UART.c ****         *  Only available for PSoC 4100 BLE / PSoC 4200 BLE / PSoC 4100M / PSoC 4200M /
 615:Generated_Source\PSoC4/UART_OUT_UART.c ****         *  PSoC 4200L / PSoC 4000S / PSoC 4100S / PSoC Analog Coprocessor devices.
 616:Generated_Source\PSoC4/UART_OUT_UART.c ****         *
 617:Generated_Source\PSoC4/UART_OUT_UART.c ****         *  \param polarity: Active polarity of RTS output signal.
 618:Generated_Source\PSoC4/UART_OUT_UART.c ****         *   - UART_OUT_UART_RTS_ACTIVE_LOW  - RTS signal is active low.
 619:Generated_Source\PSoC4/UART_OUT_UART.c ****         *   - UART_OUT_UART_RTS_ACTIVE_HIGH - RTS signal is active high.
 620:Generated_Source\PSoC4/UART_OUT_UART.c ****         *
 621:Generated_Source\PSoC4/UART_OUT_UART.c ****         *******************************************************************************/
 622:Generated_Source\PSoC4/UART_OUT_UART.c ****         void UART_OUT_UartSetRtsPolarity(uint32 polarity)
 623:Generated_Source\PSoC4/UART_OUT_UART.c ****         {
 624:Generated_Source\PSoC4/UART_OUT_UART.c ****             if(0u != polarity)
 625:Generated_Source\PSoC4/UART_OUT_UART.c ****             {
 626:Generated_Source\PSoC4/UART_OUT_UART.c ****                 UART_OUT_UART_FLOW_CTRL_REG |= (uint32)  UART_OUT_UART_FLOW_CTRL_RTS_POLARITY;
 627:Generated_Source\PSoC4/UART_OUT_UART.c ****             }
 628:Generated_Source\PSoC4/UART_OUT_UART.c ****             else
 629:Generated_Source\PSoC4/UART_OUT_UART.c ****             {
 630:Generated_Source\PSoC4/UART_OUT_UART.c ****                 UART_OUT_UART_FLOW_CTRL_REG &= (uint32) ~UART_OUT_UART_FLOW_CTRL_RTS_POLARITY;
 631:Generated_Source\PSoC4/UART_OUT_UART.c ****             }
 632:Generated_Source\PSoC4/UART_OUT_UART.c ****         }
 633:Generated_Source\PSoC4/UART_OUT_UART.c **** 
 634:Generated_Source\PSoC4/UART_OUT_UART.c **** 
 635:Generated_Source\PSoC4/UART_OUT_UART.c ****         /*******************************************************************************
 636:Generated_Source\PSoC4/UART_OUT_UART.c ****         * Function Name: UART_OUT_UartSetRtsFifoLevel
 637:Generated_Source\PSoC4/UART_OUT_UART.c ****         ****************************************************************************//**
 638:Generated_Source\PSoC4/UART_OUT_UART.c ****         *
 639:Generated_Source\PSoC4/UART_OUT_UART.c ****         *  Sets level in the RX FIFO for RTS signal activation.
 640:Generated_Source\PSoC4/UART_OUT_UART.c ****         *  While the RX FIFO has fewer entries than the RX FIFO level the RTS signal
 641:Generated_Source\PSoC4/UART_OUT_UART.c ****         *  remains active, otherwise the RTS signal becomes inactive.
 642:Generated_Source\PSoC4/UART_OUT_UART.c ****         *  Only available for PSoC 4100 BLE / PSoC 4200 BLE / PSoC 4100M / PSoC 4200M /
 643:Generated_Source\PSoC4/UART_OUT_UART.c ****         *  PSoC 4200L / PSoC 4000S / PSoC 4100S / PSoC Analog Coprocessor devices.
 644:Generated_Source\PSoC4/UART_OUT_UART.c ****         *
 645:Generated_Source\PSoC4/UART_OUT_UART.c ****         *  \param level: Level in the RX FIFO for RTS signal activation.
 646:Generated_Source\PSoC4/UART_OUT_UART.c ****         *   The range of valid level values is between 0 and RX FIFO depth - 1.
 647:Generated_Source\PSoC4/UART_OUT_UART.c ****         *   Setting level value to 0 disables RTS signal activation.
 648:Generated_Source\PSoC4/UART_OUT_UART.c ****         *
 649:Generated_Source\PSoC4/UART_OUT_UART.c ****         *******************************************************************************/
 650:Generated_Source\PSoC4/UART_OUT_UART.c ****         void UART_OUT_UartSetRtsFifoLevel(uint32 level)
 651:Generated_Source\PSoC4/UART_OUT_UART.c ****         {
 652:Generated_Source\PSoC4/UART_OUT_UART.c ****             uint32 uartFlowCtrl;
 653:Generated_Source\PSoC4/UART_OUT_UART.c **** 
 654:Generated_Source\PSoC4/UART_OUT_UART.c ****             uartFlowCtrl = UART_OUT_UART_FLOW_CTRL_REG;
 655:Generated_Source\PSoC4/UART_OUT_UART.c **** 
 656:Generated_Source\PSoC4/UART_OUT_UART.c ****             uartFlowCtrl &= ((uint32) ~UART_OUT_UART_FLOW_CTRL_TRIGGER_LEVEL_MASK); /* Clear level 
 657:Generated_Source\PSoC4/UART_OUT_UART.c ****             uartFlowCtrl |= ((uint32) (UART_OUT_UART_FLOW_CTRL_TRIGGER_LEVEL_MASK & level));
 658:Generated_Source\PSoC4/UART_OUT_UART.c **** 
 659:Generated_Source\PSoC4/UART_OUT_UART.c ****             UART_OUT_UART_FLOW_CTRL_REG = uartFlowCtrl;
 660:Generated_Source\PSoC4/UART_OUT_UART.c ****         }
 661:Generated_Source\PSoC4/UART_OUT_UART.c ****     #endif /* !(UART_OUT_CY_SCBIP_V0 || UART_OUT_CY_SCBIP_V1) */
 662:Generated_Source\PSoC4/UART_OUT_UART.c **** 
 663:Generated_Source\PSoC4/UART_OUT_UART.c **** #endif /* (UART_OUT_UART_RX_DIRECTION) */
 664:Generated_Source\PSoC4/UART_OUT_UART.c **** 
 665:Generated_Source\PSoC4/UART_OUT_UART.c **** 
 666:Generated_Source\PSoC4/UART_OUT_UART.c **** #if(UART_OUT_UART_TX_DIRECTION)
 667:Generated_Source\PSoC4/UART_OUT_UART.c ****     /*******************************************************************************
ARM GAS  C:\Users\johnn\AppData\Local\Temp\ccsZU3kn.s 			page 18


 668:Generated_Source\PSoC4/UART_OUT_UART.c ****     * Function Name: UART_OUT_UartPutString
 669:Generated_Source\PSoC4/UART_OUT_UART.c ****     ****************************************************************************//**
 670:Generated_Source\PSoC4/UART_OUT_UART.c ****     *
 671:Generated_Source\PSoC4/UART_OUT_UART.c ****     *  Places a NULL terminated string in the transmit buffer to be sent at the
 672:Generated_Source\PSoC4/UART_OUT_UART.c ****     *  next available bus time.
 673:Generated_Source\PSoC4/UART_OUT_UART.c ****     *  This function is blocking and waits until there is a space available to put
 674:Generated_Source\PSoC4/UART_OUT_UART.c ****     *  requested data in transmit buffer.
 675:Generated_Source\PSoC4/UART_OUT_UART.c ****     *
 676:Generated_Source\PSoC4/UART_OUT_UART.c ****     *  \param string: pointer to the null terminated string array to be placed in the
 677:Generated_Source\PSoC4/UART_OUT_UART.c ****     *   transmit buffer.
 678:Generated_Source\PSoC4/UART_OUT_UART.c ****     *
 679:Generated_Source\PSoC4/UART_OUT_UART.c ****     *******************************************************************************/
 680:Generated_Source\PSoC4/UART_OUT_UART.c ****     void UART_OUT_UartPutString(const char8 string[])
 681:Generated_Source\PSoC4/UART_OUT_UART.c ****     {
 303              		.loc 1 681 0
 304              		.cfi_startproc
 305              		@ args = 0, pretend = 0, frame = 0
 306              		@ frame_needed = 0, uses_anonymous_args = 0
 307              	.LVL13:
 308 0000 70B5     		push	{r4, r5, r6, lr}
 309              		.cfi_def_cfa_offset 16
 310              		.cfi_offset 4, -16
 311              		.cfi_offset 5, -12
 312              		.cfi_offset 6, -8
 313              		.cfi_offset 14, -4
 314 0002 0500     		movs	r5, r0
 315              	.LVL14:
 682:Generated_Source\PSoC4/UART_OUT_UART.c ****         uint32 bufIndex;
 683:Generated_Source\PSoC4/UART_OUT_UART.c **** 
 684:Generated_Source\PSoC4/UART_OUT_UART.c ****         bufIndex = 0u;
 316              		.loc 1 684 0
 317 0004 0024     		movs	r4, #0
 685:Generated_Source\PSoC4/UART_OUT_UART.c **** 
 686:Generated_Source\PSoC4/UART_OUT_UART.c ****         /* Blocks the control flow until all data has been sent */
 687:Generated_Source\PSoC4/UART_OUT_UART.c ****         while(string[bufIndex] != ((char8) 0))
 318              		.loc 1 687 0
 319 0006 02E0     		b	.L17
 320              	.LVL15:
 321              	.L18:
 688:Generated_Source\PSoC4/UART_OUT_UART.c ****         {
 689:Generated_Source\PSoC4/UART_OUT_UART.c ****             UART_OUT_UartPutChar((uint32) string[bufIndex]);
 322              		.loc 1 689 0
 323 0008 FFF7FEFF 		bl	UART_OUT_SpiUartWriteTxData
 324              	.LVL16:
 690:Generated_Source\PSoC4/UART_OUT_UART.c ****             bufIndex++;
 325              		.loc 1 690 0
 326 000c 0134     		adds	r4, r4, #1
 327              	.LVL17:
 328              	.L17:
 687:Generated_Source\PSoC4/UART_OUT_UART.c ****         {
 329              		.loc 1 687 0
 330 000e 285D     		ldrb	r0, [r5, r4]
 331 0010 0028     		cmp	r0, #0
 332 0012 F9D1     		bne	.L18
 691:Generated_Source\PSoC4/UART_OUT_UART.c ****         }
 692:Generated_Source\PSoC4/UART_OUT_UART.c ****     }
 333              		.loc 1 692 0
ARM GAS  C:\Users\johnn\AppData\Local\Temp\ccsZU3kn.s 			page 19


 334              		@ sp needed
 335              	.LVL18:
 336              	.LVL19:
 337 0014 70BD     		pop	{r4, r5, r6, pc}
 338              		.cfi_endproc
 339              	.LFE7:
 340              		.size	UART_OUT_UartPutString, .-UART_OUT_UartPutString
 341 0016 C046     		.section	.text.UART_OUT_UartPutCRLF,"ax",%progbits
 342              		.align	2
 343              		.global	UART_OUT_UartPutCRLF
 344              		.code	16
 345              		.thumb_func
 346              		.type	UART_OUT_UartPutCRLF, %function
 347              	UART_OUT_UartPutCRLF:
 348              	.LFB8:
 693:Generated_Source\PSoC4/UART_OUT_UART.c **** 
 694:Generated_Source\PSoC4/UART_OUT_UART.c **** 
 695:Generated_Source\PSoC4/UART_OUT_UART.c ****     /*******************************************************************************
 696:Generated_Source\PSoC4/UART_OUT_UART.c ****     * Function Name: UART_OUT_UartPutCRLF
 697:Generated_Source\PSoC4/UART_OUT_UART.c ****     ****************************************************************************//**
 698:Generated_Source\PSoC4/UART_OUT_UART.c ****     *
 699:Generated_Source\PSoC4/UART_OUT_UART.c ****     *  Places byte of data followed by a carriage return (0x0D) and line feed
 700:Generated_Source\PSoC4/UART_OUT_UART.c ****     *  (0x0A) in the transmit buffer.
 701:Generated_Source\PSoC4/UART_OUT_UART.c ****     *  This function is blocking and waits until there is a space available to put
 702:Generated_Source\PSoC4/UART_OUT_UART.c ****     *  all requested data in transmit buffer.
 703:Generated_Source\PSoC4/UART_OUT_UART.c ****     *
 704:Generated_Source\PSoC4/UART_OUT_UART.c ****     *  \param txDataByte: the data to be transmitted.
 705:Generated_Source\PSoC4/UART_OUT_UART.c ****     *
 706:Generated_Source\PSoC4/UART_OUT_UART.c ****     *******************************************************************************/
 707:Generated_Source\PSoC4/UART_OUT_UART.c ****     void UART_OUT_UartPutCRLF(uint32 txDataByte)
 708:Generated_Source\PSoC4/UART_OUT_UART.c ****     {
 349              		.loc 1 708 0
 350              		.cfi_startproc
 351              		@ args = 0, pretend = 0, frame = 0
 352              		@ frame_needed = 0, uses_anonymous_args = 0
 353              	.LVL20:
 354 0000 10B5     		push	{r4, lr}
 355              		.cfi_def_cfa_offset 8
 356              		.cfi_offset 4, -8
 357              		.cfi_offset 14, -4
 709:Generated_Source\PSoC4/UART_OUT_UART.c ****         UART_OUT_UartPutChar(txDataByte);  /* Blocks control flow until all data has been sent */
 358              		.loc 1 709 0
 359 0002 FFF7FEFF 		bl	UART_OUT_SpiUartWriteTxData
 360              	.LVL21:
 710:Generated_Source\PSoC4/UART_OUT_UART.c ****         UART_OUT_UartPutChar(0x0Du);       /* Blocks control flow until all data has been sent */
 361              		.loc 1 710 0
 362 0006 0D20     		movs	r0, #13
 363 0008 FFF7FEFF 		bl	UART_OUT_SpiUartWriteTxData
 364              	.LVL22:
 711:Generated_Source\PSoC4/UART_OUT_UART.c ****         UART_OUT_UartPutChar(0x0Au);       /* Blocks control flow until all data has been sent */
 365              		.loc 1 711 0
 366 000c 0A20     		movs	r0, #10
 367 000e FFF7FEFF 		bl	UART_OUT_SpiUartWriteTxData
 368              	.LVL23:
 712:Generated_Source\PSoC4/UART_OUT_UART.c ****     }
 369              		.loc 1 712 0
 370              		@ sp needed
ARM GAS  C:\Users\johnn\AppData\Local\Temp\ccsZU3kn.s 			page 20


 371 0012 10BD     		pop	{r4, pc}
 372              		.cfi_endproc
 373              	.LFE8:
 374              		.size	UART_OUT_UartPutCRLF, .-UART_OUT_UartPutCRLF
 375              		.section	.text.UART_OUT_UartEnableCts,"ax",%progbits
 376              		.align	2
 377              		.global	UART_OUT_UartEnableCts
 378              		.code	16
 379              		.thumb_func
 380              		.type	UART_OUT_UartEnableCts, %function
 381              	UART_OUT_UartEnableCts:
 382              	.LFB9:
 713:Generated_Source\PSoC4/UART_OUT_UART.c **** 
 714:Generated_Source\PSoC4/UART_OUT_UART.c **** 
 715:Generated_Source\PSoC4/UART_OUT_UART.c ****     #if !(UART_OUT_CY_SCBIP_V0 || UART_OUT_CY_SCBIP_V1)
 716:Generated_Source\PSoC4/UART_OUT_UART.c ****         /*******************************************************************************
 717:Generated_Source\PSoC4/UART_OUT_UART.c ****         * Function Name: UART_OUTSCB_UartEnableCts
 718:Generated_Source\PSoC4/UART_OUT_UART.c ****         ****************************************************************************//**
 719:Generated_Source\PSoC4/UART_OUT_UART.c ****         *
 720:Generated_Source\PSoC4/UART_OUT_UART.c ****         *  Enables usage of CTS input signal by the UART transmitter.
 721:Generated_Source\PSoC4/UART_OUT_UART.c ****         *  Only available for PSoC 4100 BLE / PSoC 4200 BLE / PSoC 4100M / PSoC 4200M /
 722:Generated_Source\PSoC4/UART_OUT_UART.c ****         *  PSoC 4200L / PSoC 4000S / PSoC 4100S / PSoC Analog Coprocessor devices.
 723:Generated_Source\PSoC4/UART_OUT_UART.c ****         *
 724:Generated_Source\PSoC4/UART_OUT_UART.c ****         *******************************************************************************/
 725:Generated_Source\PSoC4/UART_OUT_UART.c ****         void UART_OUT_UartEnableCts(void)
 726:Generated_Source\PSoC4/UART_OUT_UART.c ****         {
 383              		.loc 1 726 0
 384              		.cfi_startproc
 385              		@ args = 0, pretend = 0, frame = 0
 386              		@ frame_needed = 0, uses_anonymous_args = 0
 387              		@ link register save eliminated.
 727:Generated_Source\PSoC4/UART_OUT_UART.c ****             UART_OUT_UART_FLOW_CTRL_REG |= (uint32)  UART_OUT_UART_FLOW_CTRL_CTS_ENABLE;
 388              		.loc 1 727 0
 389 0000 034A     		ldr	r2, .L21
 390 0002 1368     		ldr	r3, [r2]
 391 0004 8021     		movs	r1, #128
 392 0006 8904     		lsls	r1, r1, #18
 393 0008 0B43     		orrs	r3, r1
 394 000a 1360     		str	r3, [r2]
 728:Generated_Source\PSoC4/UART_OUT_UART.c ****         }
 395              		.loc 1 728 0
 396              		@ sp needed
 397 000c 7047     		bx	lr
 398              	.L22:
 399 000e C046     		.align	2
 400              	.L21:
 401 0010 50002540 		.word	1076166736
 402              		.cfi_endproc
 403              	.LFE9:
 404              		.size	UART_OUT_UartEnableCts, .-UART_OUT_UartEnableCts
 405              		.section	.text.UART_OUT_UartDisableCts,"ax",%progbits
 406              		.align	2
 407              		.global	UART_OUT_UartDisableCts
 408              		.code	16
 409              		.thumb_func
 410              		.type	UART_OUT_UartDisableCts, %function
 411              	UART_OUT_UartDisableCts:
ARM GAS  C:\Users\johnn\AppData\Local\Temp\ccsZU3kn.s 			page 21


 412              	.LFB10:
 729:Generated_Source\PSoC4/UART_OUT_UART.c **** 
 730:Generated_Source\PSoC4/UART_OUT_UART.c **** 
 731:Generated_Source\PSoC4/UART_OUT_UART.c ****         /*******************************************************************************
 732:Generated_Source\PSoC4/UART_OUT_UART.c ****         * Function Name: UART_OUT_UartDisableCts
 733:Generated_Source\PSoC4/UART_OUT_UART.c ****         ****************************************************************************//**
 734:Generated_Source\PSoC4/UART_OUT_UART.c ****         *
 735:Generated_Source\PSoC4/UART_OUT_UART.c ****         *  Disables usage of CTS input signal by the UART transmitter.
 736:Generated_Source\PSoC4/UART_OUT_UART.c ****         *  Only available for PSoC 4100 BLE / PSoC 4200 BLE / PSoC 4100M / PSoC 4200M /
 737:Generated_Source\PSoC4/UART_OUT_UART.c ****         *  PSoC 4200L / PSoC 4000S / PSoC 4100S / PSoC Analog Coprocessor devices.
 738:Generated_Source\PSoC4/UART_OUT_UART.c ****         *
 739:Generated_Source\PSoC4/UART_OUT_UART.c ****         *******************************************************************************/
 740:Generated_Source\PSoC4/UART_OUT_UART.c ****         void UART_OUT_UartDisableCts(void)
 741:Generated_Source\PSoC4/UART_OUT_UART.c ****         {
 413              		.loc 1 741 0
 414              		.cfi_startproc
 415              		@ args = 0, pretend = 0, frame = 0
 416              		@ frame_needed = 0, uses_anonymous_args = 0
 417              		@ link register save eliminated.
 742:Generated_Source\PSoC4/UART_OUT_UART.c ****             UART_OUT_UART_FLOW_CTRL_REG &= (uint32) ~UART_OUT_UART_FLOW_CTRL_CTS_ENABLE;
 418              		.loc 1 742 0
 419 0000 024A     		ldr	r2, .L24
 420 0002 1168     		ldr	r1, [r2]
 421 0004 024B     		ldr	r3, .L24+4
 422 0006 0B40     		ands	r3, r1
 423 0008 1360     		str	r3, [r2]
 743:Generated_Source\PSoC4/UART_OUT_UART.c ****         }
 424              		.loc 1 743 0
 425              		@ sp needed
 426 000a 7047     		bx	lr
 427              	.L25:
 428              		.align	2
 429              	.L24:
 430 000c 50002540 		.word	1076166736
 431 0010 FFFFFFFD 		.word	-33554433
 432              		.cfi_endproc
 433              	.LFE10:
 434              		.size	UART_OUT_UartDisableCts, .-UART_OUT_UartDisableCts
 435              		.section	.text.UART_OUT_UartSetCtsPolarity,"ax",%progbits
 436              		.align	2
 437              		.global	UART_OUT_UartSetCtsPolarity
 438              		.code	16
 439              		.thumb_func
 440              		.type	UART_OUT_UartSetCtsPolarity, %function
 441              	UART_OUT_UartSetCtsPolarity:
 442              	.LFB11:
 744:Generated_Source\PSoC4/UART_OUT_UART.c **** 
 745:Generated_Source\PSoC4/UART_OUT_UART.c **** 
 746:Generated_Source\PSoC4/UART_OUT_UART.c ****         /*******************************************************************************
 747:Generated_Source\PSoC4/UART_OUT_UART.c ****         * Function Name: UART_OUT_UartSetCtsPolarity
 748:Generated_Source\PSoC4/UART_OUT_UART.c ****         ****************************************************************************//**
 749:Generated_Source\PSoC4/UART_OUT_UART.c ****         *
 750:Generated_Source\PSoC4/UART_OUT_UART.c ****         *  Sets active polarity of CTS input signal.
 751:Generated_Source\PSoC4/UART_OUT_UART.c ****         *  Only available for PSoC 4100 BLE / PSoC 4200 BLE / PSoC 4100M / PSoC 4200M /
 752:Generated_Source\PSoC4/UART_OUT_UART.c ****         *  PSoC 4200L / PSoC 4000S / PSoC 4100S / PSoC Analog Coprocessor devices.
 753:Generated_Source\PSoC4/UART_OUT_UART.c ****         *
 754:Generated_Source\PSoC4/UART_OUT_UART.c ****         * \param
ARM GAS  C:\Users\johnn\AppData\Local\Temp\ccsZU3kn.s 			page 22


 755:Generated_Source\PSoC4/UART_OUT_UART.c ****         * polarity: Active polarity of CTS output signal.
 756:Generated_Source\PSoC4/UART_OUT_UART.c ****         *   - UART_OUT_UART_CTS_ACTIVE_LOW  - CTS signal is active low.
 757:Generated_Source\PSoC4/UART_OUT_UART.c ****         *   - UART_OUT_UART_CTS_ACTIVE_HIGH - CTS signal is active high.
 758:Generated_Source\PSoC4/UART_OUT_UART.c ****         *
 759:Generated_Source\PSoC4/UART_OUT_UART.c ****         *******************************************************************************/
 760:Generated_Source\PSoC4/UART_OUT_UART.c ****         void UART_OUT_UartSetCtsPolarity(uint32 polarity)
 761:Generated_Source\PSoC4/UART_OUT_UART.c ****         {
 443              		.loc 1 761 0
 444              		.cfi_startproc
 445              		@ args = 0, pretend = 0, frame = 0
 446              		@ frame_needed = 0, uses_anonymous_args = 0
 447              		@ link register save eliminated.
 448              	.LVL24:
 762:Generated_Source\PSoC4/UART_OUT_UART.c ****             if (0u != polarity)
 449              		.loc 1 762 0
 450 0000 0028     		cmp	r0, #0
 451 0002 06D0     		beq	.L27
 763:Generated_Source\PSoC4/UART_OUT_UART.c ****             {
 764:Generated_Source\PSoC4/UART_OUT_UART.c ****                 UART_OUT_UART_FLOW_CTRL_REG |= (uint32)  UART_OUT_UART_FLOW_CTRL_CTS_POLARITY;
 452              		.loc 1 764 0
 453 0004 064A     		ldr	r2, .L29
 454 0006 1368     		ldr	r3, [r2]
 455 0008 8021     		movs	r1, #128
 456 000a 4904     		lsls	r1, r1, #17
 457 000c 0B43     		orrs	r3, r1
 458 000e 1360     		str	r3, [r2]
 459 0010 04E0     		b	.L26
 460              	.L27:
 765:Generated_Source\PSoC4/UART_OUT_UART.c ****             }
 766:Generated_Source\PSoC4/UART_OUT_UART.c ****             else
 767:Generated_Source\PSoC4/UART_OUT_UART.c ****             {
 768:Generated_Source\PSoC4/UART_OUT_UART.c ****                 UART_OUT_UART_FLOW_CTRL_REG &= (uint32) ~UART_OUT_UART_FLOW_CTRL_CTS_POLARITY;
 461              		.loc 1 768 0
 462 0012 034A     		ldr	r2, .L29
 463 0014 1168     		ldr	r1, [r2]
 464 0016 034B     		ldr	r3, .L29+4
 465 0018 0B40     		ands	r3, r1
 466 001a 1360     		str	r3, [r2]
 467              	.L26:
 769:Generated_Source\PSoC4/UART_OUT_UART.c ****             }
 770:Generated_Source\PSoC4/UART_OUT_UART.c ****         }
 468              		.loc 1 770 0
 469              		@ sp needed
 470 001c 7047     		bx	lr
 471              	.L30:
 472 001e C046     		.align	2
 473              	.L29:
 474 0020 50002540 		.word	1076166736
 475 0024 FFFFFFFE 		.word	-16777217
 476              		.cfi_endproc
 477              	.LFE11:
 478              		.size	UART_OUT_UartSetCtsPolarity, .-UART_OUT_UartSetCtsPolarity
 479              		.section	.text.UART_OUT_UartSendBreakBlocking,"ax",%progbits
 480              		.align	2
 481              		.global	UART_OUT_UartSendBreakBlocking
 482              		.code	16
 483              		.thumb_func
ARM GAS  C:\Users\johnn\AppData\Local\Temp\ccsZU3kn.s 			page 23


 484              		.type	UART_OUT_UartSendBreakBlocking, %function
 485              	UART_OUT_UartSendBreakBlocking:
 486              	.LFB12:
 771:Generated_Source\PSoC4/UART_OUT_UART.c ****     #endif /* !(UART_OUT_CY_SCBIP_V0 || UART_OUT_CY_SCBIP_V1) */
 772:Generated_Source\PSoC4/UART_OUT_UART.c **** 
 773:Generated_Source\PSoC4/UART_OUT_UART.c **** 
 774:Generated_Source\PSoC4/UART_OUT_UART.c ****     /*******************************************************************************
 775:Generated_Source\PSoC4/UART_OUT_UART.c ****     * Function Name: UART_OUT_UartSendBreakBlocking
 776:Generated_Source\PSoC4/UART_OUT_UART.c ****     ****************************************************************************//**
 777:Generated_Source\PSoC4/UART_OUT_UART.c ****     *
 778:Generated_Source\PSoC4/UART_OUT_UART.c ****     * Sends a break condition (logic low) of specified width on UART TX line.
 779:Generated_Source\PSoC4/UART_OUT_UART.c ****     * Blocks until break is completed. Only call this function when UART TX FIFO
 780:Generated_Source\PSoC4/UART_OUT_UART.c ****     * and shifter are empty.
 781:Generated_Source\PSoC4/UART_OUT_UART.c ****     *
 782:Generated_Source\PSoC4/UART_OUT_UART.c ****     * \param breakWidth
 783:Generated_Source\PSoC4/UART_OUT_UART.c ****     * Width of break condition. Valid range is 4 to 16 bits.
 784:Generated_Source\PSoC4/UART_OUT_UART.c ****     *
 785:Generated_Source\PSoC4/UART_OUT_UART.c ****     * \note
 786:Generated_Source\PSoC4/UART_OUT_UART.c ****     * Before sending break all UART TX interrupt sources are disabled. The state
 787:Generated_Source\PSoC4/UART_OUT_UART.c ****     * of UART TX interrupt sources is restored before function returns.
 788:Generated_Source\PSoC4/UART_OUT_UART.c ****     *
 789:Generated_Source\PSoC4/UART_OUT_UART.c ****     * \sideeffect
 790:Generated_Source\PSoC4/UART_OUT_UART.c ****     * If this function is called while there is data in the TX FIFO or shifter that
 791:Generated_Source\PSoC4/UART_OUT_UART.c ****     * data will be shifted out in packets the size of breakWidth.
 792:Generated_Source\PSoC4/UART_OUT_UART.c ****     *
 793:Generated_Source\PSoC4/UART_OUT_UART.c ****     *******************************************************************************/
 794:Generated_Source\PSoC4/UART_OUT_UART.c ****     void UART_OUT_UartSendBreakBlocking(uint32 breakWidth)
 795:Generated_Source\PSoC4/UART_OUT_UART.c ****     {
 487              		.loc 1 795 0
 488              		.cfi_startproc
 489              		@ args = 0, pretend = 0, frame = 0
 490              		@ frame_needed = 0, uses_anonymous_args = 0
 491              	.LVL25:
 492 0000 70B5     		push	{r4, r5, r6, lr}
 493              		.cfi_def_cfa_offset 16
 494              		.cfi_offset 4, -16
 495              		.cfi_offset 5, -12
 496              		.cfi_offset 6, -8
 497              		.cfi_offset 14, -4
 498 0002 0300     		movs	r3, r0
 796:Generated_Source\PSoC4/UART_OUT_UART.c ****         uint32 txCtrlReg;
 797:Generated_Source\PSoC4/UART_OUT_UART.c ****         uint32 txIntrReg;
 798:Generated_Source\PSoC4/UART_OUT_UART.c **** 
 799:Generated_Source\PSoC4/UART_OUT_UART.c ****         /* Disable all UART TX interrupt source and clear UART TX Done history */
 800:Generated_Source\PSoC4/UART_OUT_UART.c ****         txIntrReg = UART_OUT_GetTxInterruptMode();
 499              		.loc 1 800 0
 500 0004 0F4A     		ldr	r2, .L33
 501 0006 1568     		ldr	r5, [r2]
 502              	.LVL26:
 801:Generated_Source\PSoC4/UART_OUT_UART.c ****         UART_OUT_SetTxInterruptMode(0u);
 503              		.loc 1 801 0
 504 0008 0024     		movs	r4, #0
 505 000a 1460     		str	r4, [r2]
 802:Generated_Source\PSoC4/UART_OUT_UART.c ****         UART_OUT_ClearTxInterruptSource(UART_OUT_INTR_TX_UART_DONE);
 506              		.loc 1 802 0
 507 000c 8021     		movs	r1, #128
 508 000e 8900     		lsls	r1, r1, #2
ARM GAS  C:\Users\johnn\AppData\Local\Temp\ccsZU3kn.s 			page 24


 509 0010 0D4A     		ldr	r2, .L33+4
 510 0012 1160     		str	r1, [r2]
 803:Generated_Source\PSoC4/UART_OUT_UART.c **** 
 804:Generated_Source\PSoC4/UART_OUT_UART.c ****         /* Store TX CTRL configuration */
 805:Generated_Source\PSoC4/UART_OUT_UART.c ****         txCtrlReg = UART_OUT_TX_CTRL_REG;
 511              		.loc 1 805 0
 512 0014 0D4A     		ldr	r2, .L33+8
 513 0016 1668     		ldr	r6, [r2]
 514              	.LVL27:
 806:Generated_Source\PSoC4/UART_OUT_UART.c **** 
 807:Generated_Source\PSoC4/UART_OUT_UART.c ****         /* Set break width */
 808:Generated_Source\PSoC4/UART_OUT_UART.c ****         UART_OUT_TX_CTRL_REG = (UART_OUT_TX_CTRL_REG & (uint32) ~UART_OUT_TX_CTRL_DATA_WIDTH_MASK) 
 515              		.loc 1 808 0
 516 0018 1168     		ldr	r1, [r2]
 517 001a 0F20     		movs	r0, #15
 518              	.LVL28:
 519 001c 8143     		bics	r1, r0
 809:Generated_Source\PSoC4/UART_OUT_UART.c ****                                         UART_OUT_GET_TX_CTRL_DATA_WIDTH(breakWidth);
 520              		.loc 1 809 0
 521 001e 013B     		subs	r3, r3, #1
 522              	.LVL29:
 523 0020 1840     		ands	r0, r3
 808:Generated_Source\PSoC4/UART_OUT_UART.c ****                                         UART_OUT_GET_TX_CTRL_DATA_WIDTH(breakWidth);
 524              		.loc 1 808 0
 525 0022 0843     		orrs	r0, r1
 526 0024 1060     		str	r0, [r2]
 810:Generated_Source\PSoC4/UART_OUT_UART.c **** 
 811:Generated_Source\PSoC4/UART_OUT_UART.c ****         /* Generate break */
 812:Generated_Source\PSoC4/UART_OUT_UART.c ****         UART_OUT_TX_FIFO_WR_REG = 0u;
 527              		.loc 1 812 0
 528 0026 0A4B     		ldr	r3, .L33+12
 529              	.LVL30:
 530 0028 1C60     		str	r4, [r3]
 531              	.L32:
 813:Generated_Source\PSoC4/UART_OUT_UART.c **** 
 814:Generated_Source\PSoC4/UART_OUT_UART.c ****         /* Wait for break completion */
 815:Generated_Source\PSoC4/UART_OUT_UART.c ****         while (0u == (UART_OUT_GetTxInterruptSource() & UART_OUT_INTR_TX_UART_DONE))
 532              		.loc 1 815 0 discriminator 1
 533 002a 074B     		ldr	r3, .L33+4
 534 002c 1B68     		ldr	r3, [r3]
 535 002e 9B05     		lsls	r3, r3, #22
 536 0030 FBD5     		bpl	.L32
 816:Generated_Source\PSoC4/UART_OUT_UART.c ****         {
 817:Generated_Source\PSoC4/UART_OUT_UART.c ****         }
 818:Generated_Source\PSoC4/UART_OUT_UART.c **** 
 819:Generated_Source\PSoC4/UART_OUT_UART.c ****         /* Clear all UART TX interrupt sources to  */
 820:Generated_Source\PSoC4/UART_OUT_UART.c ****         UART_OUT_ClearTxInterruptSource(UART_OUT_INTR_TX_ALL);
 537              		.loc 1 820 0
 538 0032 084A     		ldr	r2, .L33+16
 539 0034 044B     		ldr	r3, .L33+4
 540 0036 1A60     		str	r2, [r3]
 821:Generated_Source\PSoC4/UART_OUT_UART.c **** 
 822:Generated_Source\PSoC4/UART_OUT_UART.c ****         /* Restore TX interrupt sources and data width */
 823:Generated_Source\PSoC4/UART_OUT_UART.c ****         UART_OUT_TX_CTRL_REG = txCtrlReg;
 541              		.loc 1 823 0
 542 0038 044B     		ldr	r3, .L33+8
 543 003a 1E60     		str	r6, [r3]
ARM GAS  C:\Users\johnn\AppData\Local\Temp\ccsZU3kn.s 			page 25


 824:Generated_Source\PSoC4/UART_OUT_UART.c ****         UART_OUT_SetTxInterruptMode(txIntrReg);
 544              		.loc 1 824 0
 545 003c 014B     		ldr	r3, .L33
 546 003e 1D60     		str	r5, [r3]
 825:Generated_Source\PSoC4/UART_OUT_UART.c ****     }
 547              		.loc 1 825 0
 548              		@ sp needed
 549              	.LVL31:
 550              	.LVL32:
 551 0040 70BD     		pop	{r4, r5, r6, pc}
 552              	.L34:
 553 0042 C046     		.align	2
 554              	.L33:
 555 0044 880F2540 		.word	1076170632
 556 0048 800F2540 		.word	1076170624
 557 004c 00022540 		.word	1076167168
 558 0050 40022540 		.word	1076167232
 559 0054 F3070000 		.word	2035
 560              		.cfi_endproc
 561              	.LFE12:
 562              		.size	UART_OUT_UartSendBreakBlocking, .-UART_OUT_UartSendBreakBlocking
 563              		.text
 564              	.Letext0:
 565              		.file 2 "Generated_Source\\PSoC4/cytypes.h"
 566              		.file 3 "Generated_Source\\PSoC4/CyLib.h"
 567              		.file 4 "Generated_Source\\PSoC4\\UART_OUT_SPI_UART.h"
 568              		.file 5 "Generated_Source\\PSoC4\\UART_OUT_PVT.h"